
Merging program properties

Removed property 0xc0000002 to merge /lib/x86_64-linux-gnu/Scrt1.o (0x3) and build/dummy.o (not found)
Removed property 0xc0000002 to merge /lib/x86_64-linux-gnu/Scrt1.o (not found) and /usr/bin/../lib/gcc/x86_64-linux-gnu/11/crtendS.o (0x3)
Removed property 0xc0000002 to merge /lib/x86_64-linux-gnu/Scrt1.o (not found) and /lib/x86_64-linux-gnu/crtn.o (0x3)

Discarded input sections

 .rodata.cst4   0x0000000000000000        0x4 /lib/x86_64-linux-gnu/Scrt1.o
 .data          0x0000000000000000        0x4 /lib/x86_64-linux-gnu/Scrt1.o
 .bss           0x0000000000000000        0x0 /lib/x86_64-linux-gnu/Scrt1.o
 .note.GNU-stack
                0x0000000000000000        0x0 /lib/x86_64-linux-gnu/Scrt1.o
 .text          0x0000000000000000        0x0 /lib/x86_64-linux-gnu/crti.o
 .data          0x0000000000000000        0x0 /lib/x86_64-linux-gnu/crti.o
 .bss           0x0000000000000000        0x0 /lib/x86_64-linux-gnu/crti.o
 .note.gnu.property
                0x0000000000000000       0x20 /lib/x86_64-linux-gnu/crti.o
 .note.GNU-stack
                0x0000000000000000        0x0 /lib/x86_64-linux-gnu/crti.o
 .data          0x0000000000000000        0x0 /usr/bin/../lib/gcc/x86_64-linux-gnu/11/crtbeginS.o
 .note.GNU-stack
                0x0000000000000000        0x0 /usr/bin/../lib/gcc/x86_64-linux-gnu/11/crtbeginS.o
 .note.gnu.property
                0x0000000000000000       0x20 /usr/bin/../lib/gcc/x86_64-linux-gnu/11/crtbeginS.o
 .text          0x0000000000000000        0x1 build/dummy.o
 .note.GNU-stack
                0x0000000000000000        0x0 build/dummy.o
 .llvm_addrsig  0x0000000000000000        0x0 build/dummy.o
 .note.GNU-stack
                0x0000000000000000        0x0 build/am_map.o
 .llvm_addrsig  0x0000000000000000        0xd build/am_map.o
 .text          0x0000000000000000        0x0 build/doomdef.o
 .comment       0x0000000000000000       0x28 build/doomdef.o
 .note.GNU-stack
                0x0000000000000000        0x0 build/doomdef.o
 .llvm_addrsig  0x0000000000000000        0x0 build/doomdef.o
 .text          0x0000000000000000        0x0 build/doomstat.o
 .note.GNU-stack
                0x0000000000000000        0x0 build/doomstat.o
 .llvm_addrsig  0x0000000000000000        0x0 build/doomstat.o
 .text          0x0000000000000000        0x0 build/dstrings.o
 .note.GNU-stack
                0x0000000000000000        0x0 build/dstrings.o
 .llvm_addrsig  0x0000000000000000        0x0 build/dstrings.o
 .note.GNU-stack
                0x0000000000000000        0x0 build/d_event.o
 .llvm_addrsig  0x0000000000000000        0x1 build/d_event.o
 .text          0x0000000000000000        0x0 build/d_items.o
 .note.GNU-stack
                0x0000000000000000        0x0 build/d_items.o
 .llvm_addrsig  0x0000000000000000        0x0 build/d_items.o
 .note.GNU-stack
                0x0000000000000000        0x0 build/d_iwad.o
 .llvm_addrsig  0x0000000000000000        0x1 build/d_iwad.o
 .note.GNU-stack
                0x0000000000000000        0x0 build/d_loop.o
 .llvm_addrsig  0x0000000000000000        0x2 build/d_loop.o
 .note.GNU-stack
                0x0000000000000000        0x0 build/d_main.o
 .llvm_addrsig  0x0000000000000000       0x23 build/d_main.o
 .note.GNU-stack
                0x0000000000000000        0x0 build/d_mode.o
 .llvm_addrsig  0x0000000000000000        0x0 build/d_mode.o
 .note.GNU-stack
                0x0000000000000000        0x0 build/d_net.o
 .llvm_addrsig  0x0000000000000000        0x6 build/d_net.o
 .note.GNU-stack
                0x0000000000000000        0x0 build/f_finale.o
 .llvm_addrsig  0x0000000000000000        0x1 build/f_finale.o
 .note.GNU-stack
                0x0000000000000000        0x0 build/f_wipe.o
 .llvm_addrsig  0x0000000000000000        0x6 build/f_wipe.o
 .note.GNU-stack
                0x0000000000000000        0x0 build/g_game.o
 .llvm_addrsig  0x0000000000000000       0x1c build/g_game.o
 .note.GNU-stack
                0x0000000000000000        0x0 build/hu_lib.o
 .llvm_addrsig  0x0000000000000000        0x0 build/hu_lib.o
 .note.GNU-stack
                0x0000000000000000        0x0 build/hu_stuff.o
 .llvm_addrsig  0x0000000000000000        0xa build/hu_stuff.o
 .text          0x0000000000000000        0x0 build/info.o
 .note.GNU-stack
                0x0000000000000000        0x0 build/info.o
 .llvm_addrsig  0x0000000000000000       0x4a build/info.o
 .text          0x0000000000000000       0x23 build/i_cdmus.o
 .bss           0x0000000000000000        0x4 build/i_cdmus.o
 .note.GNU-stack
                0x0000000000000000        0x0 build/i_cdmus.o
 .llvm_addrsig  0x0000000000000000        0x0 build/i_cdmus.o
 .note.GNU-stack
                0x0000000000000000        0x0 build/i_endoom.o
 .llvm_addrsig  0x0000000000000000        0x0 build/i_endoom.o
 .note.GNU-stack
                0x0000000000000000        0x0 build/i_joystick.o
 .llvm_addrsig  0x0000000000000000        0x9 build/i_joystick.o
 .text          0x0000000000000000     0x2311 build/i_scale.o
 .bss           0x0000000000000000       0x40 build/i_scale.o
 .data          0x0000000000000000      0x1e0 build/i_scale.o
 .rodata.str1.1
                0x0000000000000000       0xcb build/i_scale.o
 .note.GNU-stack
                0x0000000000000000        0x0 build/i_scale.o
 .llvm_addrsig  0x0000000000000000       0x11 build/i_scale.o
 .note.GNU-stack
                0x0000000000000000        0x0 build/i_sound.o
 .llvm_addrsig  0x0000000000000000        0xa build/i_sound.o
 .note.GNU-stack
                0x0000000000000000        0x0 build/i_system.o
 .llvm_addrsig  0x0000000000000000        0x4 build/i_system.o
 .note.GNU-stack
                0x0000000000000000        0x0 build/i_timer.o
 .llvm_addrsig  0x0000000000000000        0x0 build/i_timer.o
 .text          0x0000000000000000      0x20d build/memio.o
 .rodata.str1.1
                0x0000000000000000       0x27 build/memio.o
 .note.GNU-stack
                0x0000000000000000        0x0 build/memio.o
 .llvm_addrsig  0x0000000000000000        0x0 build/memio.o
 .note.GNU-stack
                0x0000000000000000        0x0 build/m_argv.o
 .llvm_addrsig  0x0000000000000000        0x0 build/m_argv.o
 .note.GNU-stack
                0x0000000000000000        0x0 build/m_bbox.o
 .llvm_addrsig  0x0000000000000000        0x0 build/m_bbox.o
 .note.GNU-stack
                0x0000000000000000        0x0 build/m_cheat.o
 .llvm_addrsig  0x0000000000000000        0x0 build/m_cheat.o
 .note.GNU-stack
                0x0000000000000000        0x0 build/m_config.o
 .llvm_addrsig  0x0000000000000000        0x4 build/m_config.o
 .note.GNU-stack
                0x0000000000000000        0x0 build/m_controls.o
 .llvm_addrsig  0x0000000000000000       0xd7 build/m_controls.o
 .note.GNU-stack
                0x0000000000000000        0x0 build/m_fixed.o
 .llvm_addrsig  0x0000000000000000        0x0 build/m_fixed.o
 .note.GNU-stack
                0x0000000000000000        0x0 build/m_menu.o
 .llvm_addrsig  0x0000000000000000       0x59 build/m_menu.o
 .note.GNU-stack
                0x0000000000000000        0x0 build/m_misc.o
 .llvm_addrsig  0x0000000000000000        0x0 build/m_misc.o
 .note.GNU-stack
                0x0000000000000000        0x0 build/m_random.o
 .llvm_addrsig  0x0000000000000000        0x0 build/m_random.o
 .note.GNU-stack
                0x0000000000000000        0x0 build/p_ceilng.o
 .llvm_addrsig  0x0000000000000000        0x1 build/p_ceilng.o
 .note.GNU-stack
                0x0000000000000000        0x0 build/p_doors.o
 .llvm_addrsig  0x0000000000000000        0x2 build/p_doors.o
 .note.GNU-stack
                0x0000000000000000        0x0 build/p_enemy.o
 .llvm_addrsig  0x0000000000000000        0x3 build/p_enemy.o
 .note.GNU-stack
                0x0000000000000000        0x0 build/p_floor.o
 .llvm_addrsig  0x0000000000000000        0x1 build/p_floor.o
 .note.GNU-stack
                0x0000000000000000        0x0 build/p_inter.o
 .llvm_addrsig  0x0000000000000000        0x2 build/p_inter.o
 .note.GNU-stack
                0x0000000000000000        0x0 build/p_lights.o
 .llvm_addrsig  0x0000000000000000        0x4 build/p_lights.o
 .note.GNU-stack
                0x0000000000000000        0x0 build/p_map.o
 .llvm_addrsig  0x0000000000000000        0xb build/p_map.o
 .note.GNU-stack
                0x0000000000000000        0x0 build/p_maputl.o
 .llvm_addrsig  0x0000000000000000        0xe build/p_maputl.o
 .note.GNU-stack
                0x0000000000000000        0x0 build/p_mobj.o
 .llvm_addrsig  0x0000000000000000        0x6 build/p_mobj.o
 .note.GNU-stack
                0x0000000000000000        0x0 build/p_plats.o
 .llvm_addrsig  0x0000000000000000        0x1 build/p_plats.o
 .note.GNU-stack
                0x0000000000000000        0x0 build/p_pspr.o
 .llvm_addrsig  0x0000000000000000        0x1 build/p_pspr.o
 .note.GNU-stack
                0x0000000000000000        0x0 build/p_saveg.o
 .llvm_addrsig  0x0000000000000000        0xc build/p_saveg.o
 .note.GNU-stack
                0x0000000000000000        0x0 build/p_setup.o
 .llvm_addrsig  0x0000000000000000        0x4 build/p_setup.o
 .note.GNU-stack
                0x0000000000000000        0x0 build/p_sight.o
 .llvm_addrsig  0x0000000000000000        0x1 build/p_sight.o
 .note.GNU-stack
                0x0000000000000000        0x0 build/p_spec.o
 .llvm_addrsig  0x0000000000000000        0x6 build/p_spec.o
 .note.GNU-stack
                0x0000000000000000        0x0 build/p_switch.o
 .llvm_addrsig  0x0000000000000000        0x1 build/p_switch.o
 .note.GNU-stack
                0x0000000000000000        0x0 build/p_telept.o
 .llvm_addrsig  0x0000000000000000        0x2 build/p_telept.o
 .note.GNU-stack
                0x0000000000000000        0x0 build/p_tick.o
 .llvm_addrsig  0x0000000000000000        0x2 build/p_tick.o
 .note.GNU-stack
                0x0000000000000000        0x0 build/p_user.o
 .llvm_addrsig  0x0000000000000000        0x1 build/p_user.o
 .note.GNU-stack
                0x0000000000000000        0x0 build/r_bsp.o
 .llvm_addrsig  0x0000000000000000        0x2 build/r_bsp.o
 .note.GNU-stack
                0x0000000000000000        0x0 build/r_data.o
 .llvm_addrsig  0x0000000000000000        0x2 build/r_data.o
 .note.GNU-stack
                0x0000000000000000        0x0 build/r_draw.o
 .llvm_addrsig  0x0000000000000000        0x0 build/r_draw.o
 .note.GNU-stack
                0x0000000000000000        0x0 build/r_main.o
 .llvm_addrsig  0x0000000000000000        0x9 build/r_main.o
 .note.GNU-stack
                0x0000000000000000        0x0 build/r_plane.o
 .llvm_addrsig  0x0000000000000000        0x4 build/r_plane.o
 .note.GNU-stack
                0x0000000000000000        0x0 build/r_segs.o
 .llvm_addrsig  0x0000000000000000        0x4 build/r_segs.o
 .note.GNU-stack
                0x0000000000000000        0x0 build/r_sky.o
 .llvm_addrsig  0x0000000000000000        0x0 build/r_sky.o
 .note.GNU-stack
                0x0000000000000000        0x0 build/r_things.o
 .llvm_addrsig  0x0000000000000000        0x9 build/r_things.o
 .note.GNU-stack
                0x0000000000000000        0x0 build/sha1.o
 .llvm_addrsig  0x0000000000000000        0x0 build/sha1.o
 .text          0x0000000000000000        0x0 build/sounds.o
 .note.GNU-stack
                0x0000000000000000        0x0 build/sounds.o
 .llvm_addrsig  0x0000000000000000        0x1 build/sounds.o
 .note.GNU-stack
                0x0000000000000000        0x0 build/statdump.o
 .llvm_addrsig  0x0000000000000000        0x0 build/statdump.o
 .note.GNU-stack
                0x0000000000000000        0x0 build/st_lib.o
 .llvm_addrsig  0x0000000000000000        0x0 build/st_lib.o
 .note.GNU-stack
                0x0000000000000000        0x0 build/st_stuff.o
 .llvm_addrsig  0x0000000000000000       0x23 build/st_stuff.o
 .note.GNU-stack
                0x0000000000000000        0x0 build/s_sound.o
 .llvm_addrsig  0x0000000000000000        0x3 build/s_sound.o
 .note.GNU-stack
                0x0000000000000000        0x0 build/tables.o
 .llvm_addrsig  0x0000000000000000        0x1 build/tables.o
 .note.GNU-stack
                0x0000000000000000        0x0 build/v_video.o
 .llvm_addrsig  0x0000000000000000        0x1 build/v_video.o
 .note.GNU-stack
                0x0000000000000000        0x0 build/wi_stuff.o
 .llvm_addrsig  0x0000000000000000        0x5 build/wi_stuff.o
 .note.GNU-stack
                0x0000000000000000        0x0 build/w_checksum.o
 .llvm_addrsig  0x0000000000000000        0x0 build/w_checksum.o
 .note.GNU-stack
                0x0000000000000000        0x0 build/w_file.o
 .llvm_addrsig  0x0000000000000000        0x0 build/w_file.o
 .note.GNU-stack
                0x0000000000000000        0x0 build/w_main.o
 .llvm_addrsig  0x0000000000000000        0x0 build/w_main.o
 .note.GNU-stack
                0x0000000000000000        0x0 build/w_wad.o
 .llvm_addrsig  0x0000000000000000        0x0 build/w_wad.o
 .note.GNU-stack
                0x0000000000000000        0x0 build/z_zone.o
 .llvm_addrsig  0x0000000000000000        0x0 build/z_zone.o
 .note.GNU-stack
                0x0000000000000000        0x0 build/w_file_stdc.o
 .llvm_addrsig  0x0000000000000000        0x4 build/w_file_stdc.o
 .note.GNU-stack
                0x0000000000000000        0x0 build/i_input.o
 .llvm_addrsig  0x0000000000000000        0x0 build/i_input.o
 .note.GNU-stack
                0x0000000000000000        0x0 build/i_video.o
 .llvm_addrsig  0x0000000000000000        0x0 build/i_video.o
 .note.GNU-stack
                0x0000000000000000        0x0 build/doomgeneric.o
 .llvm_addrsig  0x0000000000000000        0x0 build/doomgeneric.o
 .note.GNU-stack
                0x0000000000000000        0x0 build/doomgeneric_opssat.o
 .llvm_addrsig  0x0000000000000000       0x10 build/doomgeneric_opssat.o
 .text          0x0000000000000000        0x0 /usr/bin/../lib/gcc/x86_64-linux-gnu/11/crtendS.o
 .data          0x0000000000000000        0x0 /usr/bin/../lib/gcc/x86_64-linux-gnu/11/crtendS.o
 .bss           0x0000000000000000        0x0 /usr/bin/../lib/gcc/x86_64-linux-gnu/11/crtendS.o
 .note.GNU-stack
                0x0000000000000000        0x0 /usr/bin/../lib/gcc/x86_64-linux-gnu/11/crtendS.o
 .note.gnu.property
                0x0000000000000000       0x20 /usr/bin/../lib/gcc/x86_64-linux-gnu/11/crtendS.o
 .text          0x0000000000000000        0x0 /lib/x86_64-linux-gnu/crtn.o
 .data          0x0000000000000000        0x0 /lib/x86_64-linux-gnu/crtn.o
 .bss           0x0000000000000000        0x0 /lib/x86_64-linux-gnu/crtn.o
 .note.gnu.property
                0x0000000000000000       0x20 /lib/x86_64-linux-gnu/crtn.o
 .note.GNU-stack
                0x0000000000000000        0x0 /lib/x86_64-linux-gnu/crtn.o

Memory Configuration

Name             Origin             Length             Attributes
*default*        0x0000000000000000 0xffffffffffffffff

Linker script and memory map

LOAD /lib/x86_64-linux-gnu/Scrt1.o
LOAD /lib/x86_64-linux-gnu/crti.o
LOAD /usr/bin/../lib/gcc/x86_64-linux-gnu/11/crtbeginS.o
LOAD build/dummy.o
LOAD build/am_map.o
LOAD build/doomdef.o
LOAD build/doomstat.o
LOAD build/dstrings.o
LOAD build/d_event.o
LOAD build/d_items.o
LOAD build/d_iwad.o
LOAD build/d_loop.o
LOAD build/d_main.o
LOAD build/d_mode.o
LOAD build/d_net.o
LOAD build/f_finale.o
LOAD build/f_wipe.o
LOAD build/g_game.o
LOAD build/hu_lib.o
LOAD build/hu_stuff.o
LOAD build/info.o
LOAD build/i_cdmus.o
LOAD build/i_endoom.o
LOAD build/i_joystick.o
LOAD build/i_scale.o
LOAD build/i_sound.o
LOAD build/i_system.o
LOAD build/i_timer.o
LOAD build/memio.o
LOAD build/m_argv.o
LOAD build/m_bbox.o
LOAD build/m_cheat.o
LOAD build/m_config.o
LOAD build/m_controls.o
LOAD build/m_fixed.o
LOAD build/m_menu.o
LOAD build/m_misc.o
LOAD build/m_random.o
LOAD build/p_ceilng.o
LOAD build/p_doors.o
LOAD build/p_enemy.o
LOAD build/p_floor.o
LOAD build/p_inter.o
LOAD build/p_lights.o
LOAD build/p_map.o
LOAD build/p_maputl.o
LOAD build/p_mobj.o
LOAD build/p_plats.o
LOAD build/p_pspr.o
LOAD build/p_saveg.o
LOAD build/p_setup.o
LOAD build/p_sight.o
LOAD build/p_spec.o
LOAD build/p_switch.o
LOAD build/p_telept.o
LOAD build/p_tick.o
LOAD build/p_user.o
LOAD build/r_bsp.o
LOAD build/r_data.o
LOAD build/r_draw.o
LOAD build/r_main.o
LOAD build/r_plane.o
LOAD build/r_segs.o
LOAD build/r_sky.o
LOAD build/r_things.o
LOAD build/sha1.o
LOAD build/sounds.o
LOAD build/statdump.o
LOAD build/st_lib.o
LOAD build/st_stuff.o
LOAD build/s_sound.o
LOAD build/tables.o
LOAD build/v_video.o
LOAD build/wi_stuff.o
LOAD build/w_checksum.o
LOAD build/w_file.o
LOAD build/w_main.o
LOAD build/w_wad.o
LOAD build/z_zone.o
LOAD build/w_file_stdc.o
LOAD build/i_input.o
LOAD build/i_video.o
LOAD build/doomgeneric.o
LOAD build/doomgeneric_opssat.o
LOAD /lib/x86_64-linux-gnu/libm.so
START GROUP
LOAD /lib/x86_64-linux-gnu/libm.so.6
LOAD /lib/x86_64-linux-gnu/libmvec.so.1
END GROUP
LOAD /lib/x86_64-linux-gnu/libc.so
START GROUP
LOAD /lib/x86_64-linux-gnu/libc.so.6
LOAD /usr/lib/x86_64-linux-gnu/libc_nonshared.a
LOAD /lib64/ld-linux-x86-64.so.2
END GROUP
LOAD /lib/x86_64-linux-gnu/libX11.so
LOAD /usr/bin/../lib/gcc/x86_64-linux-gnu/11/libgcc.a
LOAD /usr/bin/../lib/gcc/x86_64-linux-gnu/11/libgcc_s.so
START GROUP
LOAD /lib/x86_64-linux-gnu/libgcc_s.so.1
LOAD /usr/bin/../lib/gcc/x86_64-linux-gnu/11/libgcc.a
END GROUP
LOAD /lib/x86_64-linux-gnu/libc.so
START GROUP
LOAD /lib/x86_64-linux-gnu/libc.so.6
LOAD /usr/lib/x86_64-linux-gnu/libc_nonshared.a
LOAD /lib64/ld-linux-x86-64.so.2
END GROUP
LOAD /usr/bin/../lib/gcc/x86_64-linux-gnu/11/libgcc.a
LOAD /usr/bin/../lib/gcc/x86_64-linux-gnu/11/libgcc_s.so
START GROUP
LOAD /lib/x86_64-linux-gnu/libgcc_s.so.1
LOAD /usr/bin/../lib/gcc/x86_64-linux-gnu/11/libgcc.a
END GROUP
LOAD /usr/bin/../lib/gcc/x86_64-linux-gnu/11/crtendS.o
LOAD /lib/x86_64-linux-gnu/crtn.o
                [!provide]                        PROVIDE (__executable_start = SEGMENT_START ("text-segment", 0x0))
                0x0000000000000318                . = (SEGMENT_START ("text-segment", 0x0) + SIZEOF_HEADERS)

.interp         0x0000000000000318       0x1c
 *(.interp)
 .interp        0x0000000000000318       0x1c /lib/x86_64-linux-gnu/Scrt1.o

.note.gnu.property
                0x0000000000000338       0x20
 .note.gnu.property
                0x0000000000000338       0x20 /lib/x86_64-linux-gnu/Scrt1.o

.note.gnu.build-id
                0x0000000000000358       0x24
 *(.note.gnu.build-id)
 .note.gnu.build-id
                0x0000000000000358       0x24 /lib/x86_64-linux-gnu/Scrt1.o

.note.ABI-tag   0x000000000000037c       0x20
 .note.ABI-tag  0x000000000000037c       0x20 /lib/x86_64-linux-gnu/Scrt1.o

.hash
 *(.hash)

.gnu.hash       0x00000000000003a0       0x24
 *(.gnu.hash)
 .gnu.hash      0x00000000000003a0       0x24 /lib/x86_64-linux-gnu/Scrt1.o

.dynsym         0x00000000000003c8      0x4f8
 *(.dynsym)
 .dynsym        0x00000000000003c8      0x4f8 /lib/x86_64-linux-gnu/Scrt1.o

.dynstr         0x00000000000008c0      0x21c
 *(.dynstr)
 .dynstr        0x00000000000008c0      0x21c /lib/x86_64-linux-gnu/Scrt1.o

.gnu.version    0x0000000000000adc       0x6a
 *(.gnu.version)
 .gnu.version   0x0000000000000adc       0x6a /lib/x86_64-linux-gnu/Scrt1.o

.gnu.version_d  0x0000000000000b48        0x0
 *(.gnu.version_d)
 .gnu.version_d
                0x0000000000000b48        0x0 /lib/x86_64-linux-gnu/Scrt1.o

.gnu.version_r  0x0000000000000b48       0x80
 *(.gnu.version_r)
 .gnu.version_r
                0x0000000000000b48       0x80 /lib/x86_64-linux-gnu/Scrt1.o

.rela.dyn       0x0000000000000bc8     0x76b0
 *(.rela.init)
 *(.rela.text .rela.text.* .rela.gnu.linkonce.t.*)
 *(.rela.fini)
 *(.rela.rodata .rela.rodata.* .rela.gnu.linkonce.r.*)
 *(.rela.data .rela.data.* .rela.gnu.linkonce.d.*)
 .rela.data.rel.ro
                0x0000000000000bc8      0x780 /lib/x86_64-linux-gnu/Scrt1.o
 .rela.data.rel.local
                0x0000000000001348       0x18 /lib/x86_64-linux-gnu/Scrt1.o
 .rela.data     0x0000000000001360     0x6c90 /lib/x86_64-linux-gnu/Scrt1.o
 *(.rela.tdata .rela.tdata.* .rela.gnu.linkonce.td.*)
 *(.rela.tbss .rela.tbss.* .rela.gnu.linkonce.tb.*)
 *(.rela.ctors)
 *(.rela.dtors)
 *(.rela.got)
 .rela.got      0x0000000000007ff0      0x258 /lib/x86_64-linux-gnu/Scrt1.o
 *(.rela.bss .rela.bss.* .rela.gnu.linkonce.b.*)
 .rela.bss      0x0000000000008248        0x0 /lib/x86_64-linux-gnu/Scrt1.o
 *(.rela.ldata .rela.ldata.* .rela.gnu.linkonce.l.*)
 *(.rela.lbss .rela.lbss.* .rela.gnu.linkonce.lb.*)
 *(.rela.lrodata .rela.lrodata.* .rela.gnu.linkonce.lr.*)
 *(.rela.ifunc)
 .rela.ifunc    0x0000000000008248        0x0 /lib/x86_64-linux-gnu/Scrt1.o
 .rela.fini_array
                0x0000000000008248       0x18 /lib/x86_64-linux-gnu/Scrt1.o
 .rela.init_array
                0x0000000000008260       0x18 /lib/x86_64-linux-gnu/Scrt1.o

.rela.plt       0x0000000000008278      0x450
 *(.rela.plt)
 .rela.plt      0x0000000000008278      0x450 /lib/x86_64-linux-gnu/Scrt1.o
 *(.rela.iplt)

.relr.dyn
 *(.relr.dyn)
                0x0000000000009000                . = ALIGN (CONSTANT (MAXPAGESIZE))

.init           0x0000000000009000       0x1b
 *(SORT_NONE(.init))
 .init          0x0000000000009000       0x16 /lib/x86_64-linux-gnu/crti.o
                0x0000000000009000                _init
 .init          0x0000000000009016        0x5 /lib/x86_64-linux-gnu/crtn.o

.plt            0x0000000000009020      0x2f0
 *(.plt)
 .plt           0x0000000000009020      0x2f0 /lib/x86_64-linux-gnu/Scrt1.o
                0x0000000000009030                printf@@GLIBC_2.2.5
                0x0000000000009040                frexp@@GLIBC_2.2.5
                0x0000000000009050                memset@@GLIBC_2.2.5
                0x0000000000009060                ftell@@GLIBC_2.2.5
                0x0000000000009070                snprintf@@GLIBC_2.2.5
                0x0000000000009080                memchr@@GLIBC_2.2.5
                0x0000000000009090                puts@@GLIBC_2.2.5
                0x00000000000090a0                fseek@@GLIBC_2.2.5
                0x00000000000090b0                __isoc99_sscanf@@GLIBC_2.7
                0x00000000000090c0                toupper@@GLIBC_2.2.5
                0x00000000000090d0                exit@@GLIBC_2.2.5
                0x00000000000090e0                __assert_fail@@GLIBC_2.2.5
                0x00000000000090f0                strcasecmp@@GLIBC_2.2.5
                0x0000000000009100                putchar@@GLIBC_2.2.5
                0x0000000000009110                strncmp@@GLIBC_2.2.5
                0x0000000000009120                malloc@@GLIBC_2.2.5
                0x0000000000009130                fopen@@GLIBC_2.2.5
                0x0000000000009140                system@@GLIBC_2.2.5
                0x0000000000009150                atof@@GLIBC_2.2.5
                0x0000000000009160                vfprintf@@GLIBC_2.2.5
                0x0000000000009170                __ctype_toupper_loc@@GLIBC_2.3
                0x0000000000009180                free@@GLIBC_2.2.5
                0x0000000000009190                strlen@@GLIBC_2.2.5
                0x00000000000091a0                sprintf@@GLIBC_2.2.5
                0x00000000000091b0                strrchr@@GLIBC_2.2.5
                0x00000000000091c0                strstr@@GLIBC_2.2.5
                0x00000000000091d0                bcmp@@GLIBC_2.2.5
                0x00000000000091e0                atoi@@GLIBC_2.2.5
                0x00000000000091f0                memmove@@GLIBC_2.2.5
                0x0000000000009200                vsnprintf@@GLIBC_2.2.5
                0x0000000000009210                fread@@GLIBC_2.2.5
                0x0000000000009220                __errno_location@@GLIBC_2.2.5
                0x0000000000009230                strdup@@GLIBC_2.2.5
                0x0000000000009240                strncasecmp@@GLIBC_2.2.5
                0x0000000000009250                strcmp@@GLIBC_2.2.5
                0x0000000000009260                calloc@@GLIBC_2.2.5
                0x0000000000009270                fclose@@GLIBC_2.2.5
                0x0000000000009280                remove@@GLIBC_2.2.5
                0x0000000000009290                strncpy@@GLIBC_2.2.5
                0x00000000000092a0                fwrite@@GLIBC_2.2.5
                0x00000000000092b0                realloc@@GLIBC_2.2.5
                0x00000000000092c0                fprintf@@GLIBC_2.2.5
                0x00000000000092d0                memcpy@@GLIBC_2.14
                0x00000000000092e0                rename@@GLIBC_2.2.5
                0x00000000000092f0                mkdir@@GLIBC_2.2.5
                0x0000000000009300                fflush@@GLIBC_2.2.5
 *(.iplt)

.plt.got        0x0000000000009310        0x8
 *(.plt.got)
 .plt.got       0x0000000000009310        0x8 /lib/x86_64-linux-gnu/Scrt1.o
                0x0000000000009310                __cxa_finalize@@GLIBC_2.2.5

.plt.sec
 *(.plt.sec)

.text           0x0000000000009320    0x2b056
 *(.text.unlikely .text.*_unlikely .text.unlikely.*)
 *(.text.exit .text.exit.*)
 *(.text.startup .text.startup.*)
 *(.text.hot .text.hot.*)
 *(SORT_BY_NAME(.text.sorted.*))
 *(.text .stub .text.* .gnu.linkonce.t.*)
 .text          0x0000000000009320       0x26 /lib/x86_64-linux-gnu/Scrt1.o
                0x0000000000009320                _start
 *fill*         0x0000000000009346        0xa 
 .text          0x0000000000009350       0xb9 /usr/bin/../lib/gcc/x86_64-linux-gnu/11/crtbeginS.o
 *fill*         0x0000000000009409        0x3 
 .text          0x000000000000940c     0x1a98 build/am_map.o
                0x000000000000940c                AM_getIslope
                0x0000000000009462                AM_activateNewScale
                0x0000000000009515                AM_saveScaleAndLoc
                0x0000000000009546                AM_restoreScaleAndLoc
                0x00000000000095ee                AM_addMark
                0x0000000000009652                AM_findMinMaxBoundaries
                0x000000000000978e                AM_changeWindowLoc
                0x0000000000009845                AM_initVariables
                0x000000000000999d                AM_loadPics
                0x00000000000099fb                AM_unloadPics
                0x0000000000009a3d                AM_clearMarks
                0x0000000000009a62                AM_LevelInit
                0x0000000000009ad8                AM_Stop
                0x0000000000009afd                AM_Start
                0x0000000000009b72                AM_minOutWindowScale
                0x0000000000009b95                AM_maxOutWindowScale
                0x0000000000009bb8                AM_Responder
                0x0000000000009fdc                AM_changeWindowScale
                0x000000000000a03c                AM_doFollowPlayer
                0x000000000000a10d                AM_updateLightLev
                0x000000000000a16f                AM_Ticker
                0x000000000000a1b4                AM_clearFB
                0x000000000000a1e8                AM_clipMline
                0x000000000000a54a                AM_drawFline
                0x000000000000a6f0                AM_drawMline
                0x000000000000a714                AM_drawGrid
                0x000000000000a82c                AM_drawWalls
                0x000000000000a957                AM_rotate
                0x000000000000a9ce                AM_drawLineCharacter
                0x000000000000ab10                AM_drawPlayers
                0x000000000000ac28                AM_drawThings
                0x000000000000acb8                AM_drawMarks
                0x000000000000ad90                AM_drawCrosshair
                0x000000000000adca                AM_Drawer
 .text          0x000000000000aea4       0x77 build/d_event.o
                0x000000000000aea4                D_PostEvent
                0x000000000000aedf                D_PopEvent
 *fill*         0x000000000000af1b        0x1 
 .text          0x000000000000af1c      0x45f build/d_iwad.o
                0x000000000000af1c                D_FindWADByName
                0x000000000000b048                D_TryFindWADByName
                0x000000000000b05a                D_FindIWAD
                0x000000000000b279                D_FindAllIWADs
                0x000000000000b2e6                D_SaveGameIWADName
                0x000000000000b312                D_SuggestIWADName
                0x000000000000b344                D_SuggestGameName
 *fill*         0x000000000000b37b        0x1 
 .text          0x000000000000b37c      0x5fb build/d_loop.o
                0x000000000000b37c                NetUpdate
                0x000000000000b505                D_ReceiveTic
                0x000000000000b59d                D_StartGameLoop
                0x000000000000b5ea                D_StartNetGame
                0x000000000000b621                D_InitNetGame
                0x000000000000b643                D_QuitNetGame
                0x000000000000b644                TryRunTics
                0x000000000000b96f                D_RegisterLoopCallbacks
 *fill*         0x000000000000b977        0x1 
 .text          0x000000000000b978     0x15d3 build/d_main.o
                0x000000000000b978                D_ProcessEvents
                0x000000000000b9b2                D_Display
                0x000000000000bd3e                D_PageDrawer
                0x000000000000bd5d                D_BindVariables
                0x000000000000beb6                D_GrabMouseCallback
                0x000000000000bef7                doomgeneric_Tick
                0x000000000000bf37                D_DoomLoop
                0x000000000000bfeb                D_PageTicker
                0x000000000000c00a                D_AdvanceDemo
                0x000000000000c015                D_DoAdvanceDemo
                0x000000000000c1be                D_StartTitle
                0x000000000000c1e0                D_IdentifyVersion
                0x000000000000c38f                D_SetGameDescription
                0x000000000000c44e                PrintDehackedBanners
                0x000000000000c44f                PrintGameVersion
                0x000000000000c489                D_DoomMain
 *fill*         0x000000000000cf4b        0x1 
 .text          0x000000000000cf4c      0x146 build/d_mode.o
                0x000000000000cf4c                D_ValidGameMode
                0x000000000000cf78                D_ValidEpisodeMap
                0x000000000000cfed                D_GetNumEpisodes
                0x000000000000d01a                D_ValidGameVersion
                0x000000000000d05e                D_IsEpisodeMap
                0x000000000000d073                D_GameMissionString
 *fill*         0x000000000000d092        0x2 
 .text          0x000000000000d094      0x408 build/d_net.o
                0x000000000000d094                D_ConnectNetGame
                0x000000000000d186                D_CheckNetGame
 .text          0x000000000000d49c      0xbf9 build/f_finale.o
                0x000000000000d49c                F_StartFinale
                0x000000000000d589                F_Responder
                0x000000000000d599                F_CastResponder
                0x000000000000d61f                F_Ticker
                0x000000000000d6fa                F_StartCast
                0x000000000000d775                F_CastTicker
                0x000000000000db9a                F_TextWrite
                0x000000000000dcd0                F_CastPrint
                0x000000000000dd8f                F_CastDrawer
                0x000000000000de31                F_DrawPatchCol
                0x000000000000de97                F_BunnyScroll
                0x000000000000e009                F_Drawer
 *fill*         0x000000000000e095        0x3 
 .text          0x000000000000e098      0x4c7 build/f_wipe.o
                0x000000000000e098                wipe_shittyColMajorXform
                0x000000000000e134                wipe_initColorXForm
                0x000000000000e158                wipe_doColorXForm
                0x000000000000e1c3                wipe_exitColorXForm
                0x000000000000e1c6                wipe_initMelt
                0x000000000000e2b7                wipe_doMelt
                0x000000000000e41d                wipe_exitMelt
                0x000000000000e446                wipe_StartScreen
                0x000000000000e46b                wipe_EndScreen
                0x000000000000e4bf                wipe_ScreenWipe
 *fill*         0x000000000000e55f        0x1 
 .text          0x000000000000e560     0x2610 build/g_game.o
                0x000000000000e560                G_CmdChecksum
                0x000000000000e569                G_BuildTiccmd
                0x000000000000ed1e                G_DoLoadLevel
                0x000000000000eedc                G_Responder
                0x000000000000f217                G_Ticker
                0x000000000000f5ee                G_DoReborn
                0x000000000000f6bf                G_DoNewGame
                0x000000000000f72b                G_DoLoadGame
                0x000000000000f7f5                G_DoSaveGame
                0x000000000000f956                G_DoPlayDemo
                0x000000000000fb79                G_DoCompleted
                0x000000000000fe80                G_DoWorldDone
                0x000000000000feae                G_ReadDemoTiccmd
                0x000000000000ff2e                G_WriteDemoTiccmd
                0x000000000001007d                G_InitPlayer
                0x0000000000010082                G_PlayerReborn
                0x000000000001013c                G_PlayerFinishLevel
                0x0000000000010180                G_CheckSpot
                0x0000000000010392                G_DeathMatchSpawnPlayer
                0x000000000001043c                G_ScreenShot
                0x0000000000010447                G_ExitLevel
                0x000000000001045c                G_SecretExitLevel
                0x0000000000010494                G_WorldDone
                0x00000000000104fd                G_LoadGame
                0x000000000001051e                G_InitNew
                0x0000000000010741                G_SaveGame
                0x0000000000010765                G_DeferedInitNew
                0x0000000000010782                G_CheckDemoStatus
                0x00000000000108c0                G_RecordDemo
                0x0000000000010971                G_VanillaVersionCode
                0x00000000000109bd                G_BeginRecording
                0x0000000000010b21                G_DeferedPlayDemo
                0x0000000000010b33                G_TimeDemo
 .text          0x0000000000010b70      0x5db build/hu_lib.o
                0x0000000000010b70                HUlib_init
                0x0000000000010b71                HUlib_clearTextLine
                0x0000000000010b84                HUlib_initTextLine
                0x0000000000010ba4                HUlib_addCharToTextLine
                0x0000000000010bd1                HUlib_delCharFromTextLine
                0x0000000000010bf6                HUlib_drawTextLine
                0x0000000000010ccb                HUlib_eraseTextLine
                0x0000000000010d9b                HUlib_initSText
                0x0000000000010e04                HUlib_addLineToSText
                0x0000000000010e56                HUlib_addMessageToSText
                0x0000000000010f0c                HUlib_drawSText
                0x0000000000010f65                HUlib_eraseSText
                0x0000000000010fca                HUlib_initIText
                0x0000000000010ff9                HUlib_delCharFromIText
                0x000000000001101b                HUlib_eraseLineFromIText
                0x0000000000011045                HUlib_resetIText
                0x0000000000011059                HUlib_addPrefixToIText
                0x0000000000011096                HUlib_keyInIText
                0x0000000000011104                HUlib_drawIText
                0x0000000000011118                HUlib_eraseIText
 *fill*         0x000000000001114b        0x1 
 .text          0x000000000001114c      0x919 build/hu_stuff.o
                0x000000000001114c                HU_Init
                0x00000000000111b4                HU_Stop
                0x00000000000111bc                HU_Start
                0x00000000000113d6                HU_Drawer
                0x000000000001140c                HU_Erase
                0x0000000000011432                HU_Ticker
                0x000000000001162a                HU_queueChatChar
                0x0000000000011667                HU_dequeueChatChar
                0x000000000001168f                HU_Responder
 *fill*         0x0000000000011a65        0x3 
 .text          0x0000000000011a68        0x1 build/i_endoom.o
                0x0000000000011a68                I_Endoom
 *fill*         0x0000000000011a69        0x3 
 .text          0x0000000000011a6c       0xf1 build/i_joystick.o
                0x0000000000011a6c                I_ShutdownJoystick
                0x0000000000011a6d                I_InitJoystick
                0x0000000000011a6e                I_UpdateJoystick
                0x0000000000011a6f                I_BindJoystickVariables
 *fill*         0x0000000000011b5d        0x3 
 .text          0x0000000000011b60      0x102 build/i_sound.o
                0x0000000000011b60                I_InitSound
                0x0000000000011b86                I_ShutdownSound
                0x0000000000011b87                I_GetSfxLumpNum
                0x0000000000011b8a                I_UpdateSound
                0x0000000000011b8b                I_UpdateSoundParams
                0x0000000000011b8c                I_StartSound
                0x0000000000011b8f                I_StopSound
                0x0000000000011b90                I_SoundIsPlaying
                0x0000000000011b93                I_PrecacheSounds
                0x0000000000011b94                I_InitMusic
                0x0000000000011b95                I_ShutdownMusic
                0x0000000000011b96                I_SetMusicVolume
                0x0000000000011b97                I_PauseSong
                0x0000000000011b98                I_ResumeSong
                0x0000000000011b99                I_RegisterSong
                0x0000000000011b9c                I_UnRegisterSong
                0x0000000000011b9d                I_PlaySong
                0x0000000000011b9e                I_StopSong
                0x0000000000011b9f                I_MusicIsPlaying
                0x0000000000011ba2                I_BindSoundVariables
 *fill*         0x0000000000011c62        0x2 
 .text          0x0000000000011c64      0x555 build/i_system.o
                0x0000000000011c64                I_AtExit
                0x0000000000011c95                I_Tactile
                0x0000000000011c96                I_ZoneBase
                0x0000000000011d32                I_PrintBanner
                0x0000000000011d6f                I_PrintDivider
                0x0000000000011d8e                I_PrintStartupBanner
                0x0000000000011db6                I_ConsoleStdout
                0x0000000000011db9                I_Quit
                0x0000000000011dd0                I_Error
                0x0000000000012014                I_GetMemoryValue
 *fill*         0x00000000000121b9        0x3 
 .text          0x00000000000121bc       0x58 build/i_timer.o
                0x00000000000121bc                I_GetTicks
                0x00000000000121c3                I_GetTime
                0x00000000000121ef                I_GetTimeMS
                0x000000000001220d                I_Sleep
                0x0000000000012212                I_WaitVBL
                0x0000000000012213                I_InitTimer
 .text          0x0000000000012214       0x97 build/m_argv.o
                0x0000000000012214                M_CheckParmWithArgs
                0x0000000000012268                M_ParmExists
                0x000000000001227b                M_CheckParm
                0x0000000000012282                M_FindResponseFile
                0x0000000000012283                M_GetExecutableName
 *fill*         0x00000000000122ab        0x1 
 .text          0x00000000000122ac       0x33 build/m_bbox.o
                0x00000000000122ac                M_ClearBox
                0x00000000000122b7                M_AddToBox
 *fill*         0x00000000000122df        0x1 
 .text          0x00000000000122e0       0xbf build/m_cheat.o
                0x00000000000122e0                cht_CheckCheat
                0x000000000001238c                cht_GetParam
 *fill*         0x000000000001239f        0x1 
 .text          0x00000000000123a0      0x359 build/m_config.o
                0x00000000000123a0                M_SetConfigFilenames
                0x00000000000123af                M_SaveDefaults
                0x00000000000123b0                M_SaveDefaultsAlternate
                0x00000000000123b1                M_LoadDefaults
                0x0000000000012481                M_BindVariable
                0x00000000000124ea                M_SetVariable
                0x000000000001258d                M_GetIntVariable
                0x00000000000125b1                M_GetStrVariable
                0x00000000000125d5                M_GetFloatVariable
                0x00000000000125f9                M_SetConfigDir
                0x000000000001263e                M_GetSaveGameDir
 *fill*         0x00000000000126f9        0x3 
 .text          0x00000000000126fc      0x953 build/m_controls.o
                0x00000000000126fc                M_BindBaseControls
                0x00000000000128ff                M_BindHereticControls
                0x00000000000129ac                M_BindHexenControls
                0x0000000000012a7f                M_BindStrifeControls
                0x0000000000012c0a                M_BindWeaponControls
                0x0000000000012d16                M_BindMapControls
                0x0000000000012dfc                M_BindMenuControls
                0x0000000000012fd9                M_BindChatControls
                0x000000000001304e                M_ApplyPlatformDefaults
 *fill*         0x000000000001304f        0x1 
 .text          0x0000000000013050       0x44 build/m_fixed.o
                0x0000000000013050                FixedMul
                0x000000000001305f                FixedDiv
 .text          0x0000000000013094     0x20a2 build/m_menu.o
                0x0000000000013094                M_NewGame
                0x0000000000013139                M_Options
                0x0000000000013156                M_LoadGame
                0x00000000000131c4                M_SaveGame
                0x000000000001323f                M_ReadThis
                0x000000000001325c                M_QuitDOOM
                0x00000000000132f0                M_DrawMainMenu
                0x0000000000013315                M_Episode
                0x00000000000133bf                M_DrawEpisode
                0x00000000000133e4                M_ChooseSkill
                0x0000000000013441                M_DrawNewGame
                0x0000000000013489                M_EndGame
                0x000000000001351f                M_ChangeMessages
                0x000000000001356f                M_ChangeDetail
                0x00000000000135c7                M_SizeDisplay
                0x000000000001360e                M_ChangeSensitivity
                0x0000000000013639                M_Sound
                0x0000000000013656                M_DrawOptions
                0x0000000000013745                M_ReadThis2
                0x0000000000013797                M_DrawReadThis1
                0x0000000000013862                M_FinishReadThis
                0x000000000001387f                M_DrawReadThis2
                0x00000000000138a8                M_SfxVol
                0x00000000000138dd                M_MusicVol
                0x0000000000013912                M_DrawSound
                0x000000000001397f                M_LoadSelect
                0x00000000000139ba                M_DrawLoad
                0x0000000000013a2d                M_SaveSelect
                0x0000000000013a8a                M_DrawSave
                0x0000000000013b4b                M_ReadSaveStrings
                0x0000000000013c01                M_DrawSaveLoadBorder
                0x0000000000013c93                M_WriteText
                0x0000000000013d0f                M_ClearMenus
                0x0000000000013d1a                M_StartMessage
                0x0000000000013d4c                M_SetupNextMenu
                0x0000000000013d5f                M_StringWidth
                0x0000000000013dba                M_DoSave
                0x0000000000013def                M_QuickSaveResponse
                0x0000000000013e40                M_QuickSave
                0x0000000000013f3a                M_StartControlPanel
                0x0000000000013f6b                M_QuickLoadResponse
                0x0000000000013f91                M_QuickLoad
                0x000000000001402e                M_DrawThermo
                0x00000000000140e7                M_VerifyNightmare
                0x0000000000014116                M_EndGameResponse
                0x0000000000014143                M_QuitResponse
                0x000000000001419f                M_DrawEmptyCell
                0x00000000000141d8                M_DrawSelCell
                0x0000000000014211                M_StopMessage
                0x0000000000014228                M_StringHeight
                0x000000000001426d                M_Responder
                0x0000000000014e29                M_Drawer
                0x0000000000015057                M_Ticker
                0x000000000001507e                M_Init
 *fill*         0x0000000000015136        0x2 
 .text          0x0000000000015138      0x7a4 build/m_misc.o
                0x0000000000015138                M_MakeDirectory
                0x0000000000015142                M_FileExists
                0x0000000000015175                M_FileLength
                0x00000000000151b5                M_WriteFile
                0x0000000000015204                M_ReadFile
                0x00000000000152a8                M_TempFile
                0x00000000000152c2                M_StringJoin
                0x0000000000015437                M_StrToInt
                0x00000000000154b2                M_ExtractFileBase
                0x0000000000015525                M_ForceUppercase
                0x000000000001555a                M_StrCaseStr
                0x00000000000155b7                M_StringDuplicate
                0x00000000000155ef                M_StringReplace
                0x0000000000015700                M_StringCopy
                0x000000000001573c                M_StringConcat
                0x000000000001576f                M_StringStartsWith
                0x00000000000157ae                M_StringEndsWith
                0x00000000000157f3                M_vsnprintf
                0x000000000001582a                M_snprintf
 .text          0x00000000000158dc       0x49 build/m_random.o
                0x00000000000158dc                P_Random
                0x00000000000158f9                M_Random
                0x0000000000015916                M_ClearRandom
 *fill*         0x0000000000015925        0x3 
 .text          0x0000000000015928      0x3ed build/p_ceilng.o
                0x0000000000015928                T_MoveCeiling
                0x0000000000015a7f                P_RemoveActiveCeiling
                0x0000000000015ac0                EV_DoCeiling
                0x0000000000015c67                P_ActivateInStasisCeiling
                0x0000000000015ca6                P_AddActiveCeiling
                0x0000000000015cc8                EV_CeilingCrushStop
 *fill*         0x0000000000015d15        0x3 
 .text          0x0000000000015d18      0x76a build/p_doors.o
                0x0000000000015d18                T_VerticalDoor
                0x0000000000015eac                EV_DoLockedDoor
                0x0000000000015f53                EV_DoDoor
                0x0000000000016140                EV_VerticalDoor
                0x00000000000163af                P_SpawnDoorCloseIn30
                0x000000000001640a                P_SpawnDoorRaiseIn5Mins
 *fill*         0x0000000000016482        0x2 
 .text          0x0000000000016484     0x20c4 build/p_enemy.o
                0x0000000000016484                P_RecursiveSound
                0x0000000000016564                P_NoiseAlert
                0x0000000000016582                P_CheckMeleeRange
                0x00000000000165dc                P_CheckMissileRange
                0x00000000000166bd                P_Move
                0x00000000000167ee                P_TryWalk
                0x0000000000016814                P_NewChaseDir
                0x0000000000016a0e                P_LookForPlayers
                0x0000000000016b02                A_KeenDie
                0x0000000000016b6b                A_Fall
                0x0000000000016b73                A_Look
                0x0000000000016c41                A_Chase
                0x0000000000016e52                A_FaceTarget
                0x0000000000016eaa                A_PosAttack
                0x0000000000016f4e                A_SPosAttack
                0x0000000000016ff0                A_CPosAttack
                0x0000000000017094                A_CPosRefire
                0x00000000000170dd                A_SpidRefire
                0x0000000000017126                A_BspiAttack
                0x0000000000017150                A_TroopAttack
                0x00000000000171be                A_SargAttack
                0x000000000001721b                A_HeadAttack
                0x000000000001728f                A_CyberAttack
                0x00000000000172b9                A_BruisAttack
                0x0000000000017322                A_SkelMissile
                0x0000000000017373                A_Tracer
                0x00000000000174e7                A_SkelWhoosh
                0x000000000001750a                A_SkelFist
                0x0000000000017584                PIT_VileCheck
                0x0000000000017620                A_VileChase
                0x00000000000177ab                A_VileStart
                0x00000000000177b5                A_StartFire
                0x00000000000177cc                A_Fire
                0x000000000001787b                A_FireCrackle
                0x0000000000017892                A_VileTarget
                0x00000000000178e5                A_VileAttack
                0x00000000000179de                A_FatRaise
                0x00000000000179f5                A_FatAttack1
                0x0000000000017a89                A_FatAttack2
                0x0000000000017b21                A_FatAttack3
                0x0000000000017c02                A_SkullAttack
                0x0000000000017cc9                A_PainShootSkull
                0x0000000000017de3                A_PainAttack
                0x0000000000017e04                A_PainDie
                0x0000000000017e3d                A_Scream
                0x0000000000017eaa                A_XScream
                0x0000000000017eb4                A_Pain
                0x0000000000017ec7                A_Explode
                0x0000000000017ed8                A_BossDeath
                0x0000000000018140                A_Hoof
                0x0000000000018157                A_Metal
                0x000000000001816e                A_BabyMetal
                0x0000000000018185                A_OpenShotgun2
                0x0000000000018192                A_LoadShotgun2
                0x000000000001819f                A_CloseShotgun2
                0x00000000000181c8                A_BrainAwake
                0x0000000000018226                A_BrainPain
                0x0000000000018232                A_BrainScream
                0x00000000000182df                A_BrainExplode
                0x000000000001835d                A_BrainDie
                0x0000000000018362                A_BrainSpit
                0x00000000000183fa                A_SpawnSound
                0x0000000000018411                A_SpawnFly
                0x0000000000018522                A_PlayerScream
 .text          0x0000000000018548      0x7f5 build/p_floor.o
                0x0000000000018548                T_MovePlane
                0x000000000001867e                T_MoveFloor
                0x0000000000018720                EV_DoFloor
                0x0000000000018b20                EV_BuildStairs
 *fill*         0x0000000000018d3d        0x3 
 .text          0x0000000000018d40      0xec0 build/p_inter.o
                0x0000000000018d40                P_GiveAmmo
                0x0000000000018e7d                P_GiveWeapon
                0x0000000000018f97                P_GiveBody
                0x0000000000018fc0                P_GiveArmor
                0x0000000000018fd6                P_GiveCard
                0x0000000000018ff3                P_GivePower
                0x000000000001907d                P_TouchSpecialThing
                0x0000000000019751                P_KillMobj
                0x0000000000019900                P_DamageMobj
 .text          0x0000000000019c00      0x429 build/p_lights.o
                0x0000000000019c00                T_FireFlicker
                0x0000000000019c37                P_SpawnFireFlicker
                0x0000000000019c94                T_LightFlash
                0x0000000000019cd1                P_SpawnLightFlash
                0x0000000000019d3f                T_StrobeFlash
                0x0000000000019d70                P_SpawnStrobeFlash
                0x0000000000019df9                EV_StartLightStrobing
                0x0000000000019e4d                EV_TurnTagLightsOff
                0x0000000000019edd                EV_LightTurnOn
                0x0000000000019f78                T_Glow
                0x0000000000019fc9                P_SpawnGlowingLight
 *fill*         0x000000000001a029        0x3 
 .text          0x000000000001a02c     0x1653 build/p_map.o
                0x000000000001a02c                PIT_StompThing
                0x000000000001a0a5                P_TeleportMove
                0x000000000001a241                PIT_CheckLine
                0x000000000001a408                PIT_CheckThing
                0x000000000001a5a8                P_CheckPosition
                0x000000000001a7b9                P_TryMove
                0x000000000001a937                P_ThingHeightClip
                0x000000000001a990                P_HitSlideLine
                0x000000000001aa7c                PTR_SlideTraverse
                0x000000000001ab42                P_SlideMove
                0x000000000001ad36                PTR_AimTraverse
                0x000000000001aeca                PTR_ShootTraverse
                0x000000000001b1da                P_AimLineAttack
                0x000000000001b288                P_LineAttack
                0x000000000001b30b                PTR_UseTraverse
                0x000000000001b376                P_UseLines
                0x000000000001b3c9                PIT_RadiusAttack
                0x000000000001b46d                P_RadiusAttack
                0x000000000001b51e                PIT_ChangeSector
                0x000000000001b607                P_ChangeSector
 *fill*         0x000000000001b67f        0x1 
 .text          0x000000000001b680      0xae6 build/p_maputl.o
                0x000000000001b680                P_AproxDistance
                0x000000000001b69b                P_PointOnLineSide
                0x000000000001b70e                P_BoxOnLineSide
                0x000000000001b7c7                P_PointOnDivlineSide
                0x000000000001b846                P_MakeDivline
                0x000000000001b859                P_InterceptVector
                0x000000000001b8d3                P_LineOpening
                0x000000000001b91b                P_UnsetThingPosition
                0x000000000001b9cb                P_SetThingPosition
                0x000000000001ba86                P_BlockLinesIterator
                0x000000000001bb4d                P_BlockThingsIterator
                0x000000000001bbb1                PIT_AddLineIntercepts
                0x000000000001bd1f                PIT_AddThingIntercepts
                0x000000000001bdfa                P_TraverseIntercepts
                0x000000000001be8c                P_PathTraverse
 *fill*         0x000000000001c166        0x2 
 .text          0x000000000001c168     0x11bb build/p_mobj.o
                0x000000000001c168                P_SetMobjState
                0x000000000001c1df                P_RemoveMobj
                0x000000000001c276                P_ExplodeMissile
                0x000000000001c2e3                P_XYMovement
                0x000000000001c5b4                P_ZMovement
                0x000000000001c766                P_NightmareRespawn
                0x000000000001c87d                P_SpawnMobj
                0x000000000001c9ca                P_MobjThinker
                0x000000000001ca83                P_RespawnSpecials
                0x000000000001cbb0                P_SpawnPlayer
                0x000000000001cd0f                P_SpawnMapThing
                0x000000000001cf3b                P_SpawnPuff
                0x000000000001cfca                P_SpawnBlood
                0x000000000001d05e                P_CheckMissileSpawn
                0x000000000001d0b7                P_SubstNullMobj
                0x000000000001d0e1                P_SpawnMissile
                0x000000000001d1f3                P_SpawnPlayerMissile
 *fill*         0x000000000001d323        0x1 
 .text          0x000000000001d324      0x4de build/p_plats.o
                0x000000000001d324                T_PlatRaise
                0x000000000001d45e                P_RemoveActivePlat
                0x000000000001d4b0                EV_DoPlat
                0x000000000001d756                P_ActivateInStasis
                0x000000000001d791                P_AddActivePlat
                0x000000000001d7c0                EV_StopPlat
 *fill*         0x000000000001d802        0x2 
 .text          0x000000000001d804      0xc58 build/p_pspr.o
                0x000000000001d804                P_SetPsprite
                0x000000000001d887                P_CalcSwing
                0x000000000001d8db                P_BringUpWeapon
                0x000000000001d93b                P_CheckAmmo
                0x000000000001da57                P_FireWeapon
                0x000000000001da9b                P_DropWeapon
                0x000000000001dab4                A_WeaponReady
                0x000000000001dbe3                A_ReFire
                0x000000000001dc12                A_CheckReload
                0x000000000001dc17                A_Lower
                0x000000000001dc55                A_Raise
                0x000000000001dc89                A_GunFlash
                0x000000000001dcba                A_Punch
                0x000000000001dd7d                A_Saw
                0x000000000001de8b                A_FireMissile
                0x000000000001dec7                A_FireBFG
                0x000000000001df04                A_FirePlasma
                0x000000000001df69                P_BulletSlope
                0x000000000001dfd8                P_GunShot
                0x000000000001e04c                A_FirePistol
                0x000000000001e0c8                A_FireShotgun
                0x000000000001e14a                A_FireShotgun2
                0x000000000001e254                A_FireCGun
                0x000000000001e31d                A_Light0
                0x000000000001e328                A_Light1
                0x000000000001e333                A_Light2
                0x000000000001e33e                A_BFGSpray
                0x000000000001e3d6                A_BFGsound
                0x000000000001e3e3                P_SetupPsprites
                0x000000000001e401                P_MovePsprites
 .text          0x000000000001e45c     0x1c38 build/p_saveg.o
                0x000000000001e45c                P_TempSaveGameFile
                0x000000000001e48c                P_SaveGameFile
                0x000000000001e518                P_WriteSaveGameHeader
                0x000000000001e660                P_ReadSaveGameHeader
                0x000000000001e7b4                P_ReadSaveGameEOF
                0x000000000001e7c5                P_WriteSaveGameEOF
                0x000000000001e7cf                P_ArchivePlayers
                0x000000000001eb59                P_UnArchivePlayers
                0x000000000001eee9                P_ArchiveWorld
                0x000000000001f121                P_UnArchiveWorld
                0x000000000001f379                P_ArchiveThinkers
                0x000000000001f5d3                P_UnArchiveThinkers
                0x000000000001f8cc                P_ArchiveSpecials
                0x000000000001fbf0                P_UnArchiveSpecials
 .text          0x0000000000020094      0xe76 build/p_setup.o
                0x0000000000020094                P_LoadVertexes
                0x0000000000020106                GetSectorAtNullAddress
                0x0000000000020184                P_LoadSegs
                0x00000000000202f9                P_LoadSubsectors
                0x000000000002038b                P_LoadSectors
                0x0000000000020477                P_LoadNodes
                0x000000000002053b                P_LoadThings
                0x00000000000205fc                P_LoadLineDefs
                0x00000000000207f9                P_LoadSideDefs
                0x00000000000208ea                P_LoadBlockMap
                0x0000000000020979                P_GroupLines
                0x0000000000020be0                P_SetupLevel
                0x0000000000020ef2                P_Init
 *fill*         0x0000000000020f0a        0x2 
 .text          0x0000000000020f0c      0x464 build/p_sight.o
                0x0000000000020f0c                P_DivlineSide
                0x0000000000020f6e                P_InterceptVector2
                0x0000000000020fe8                P_CrossSubsector
                0x00000000000211f2                P_CrossBSPNode
                0x0000000000021299                P_CheckSight
 .text          0x0000000000021370      0xfdf build/p_spec.o
                0x0000000000021370                P_InitPicAnims
                0x0000000000021461                getSide
                0x000000000002149a                getSector
                0x00000000000214d4                twoSided
                0x00000000000214f9                getNextSector
                0x0000000000021511                P_FindLowestFloorSurrounding
                0x000000000002154e                P_FindHighestFloorSurrounding
                0x0000000000021594                P_FindNextHighestFloor
                0x0000000000021653                P_FindLowestCeilingSurrounding
                0x000000000002169a                P_FindHighestCeilingSurrounding
                0x00000000000216db                P_FindSectorFromLineTag
                0x0000000000021723                P_FindMinSurroundingLight
                0x0000000000021762                P_CrossSpecialLine
                0x0000000000021ba7                P_ShootSpecialLine
                0x0000000000021c1d                P_PlayerInSpecialSector
                0x0000000000021d12                P_UpdateSpecials
                0x0000000000021e96                EV_DoDonut
                0x0000000000022169                P_SpawnSpecials
 *fill*         0x000000000002234f        0x1 
 .text          0x0000000000022350      0x5de build/p_switch.o
                0x0000000000022350                P_InitSwitchList
                0x00000000000223fc                P_StartButton
                0x0000000000022464                P_ChangeSwitchTexture
                0x00000000000225bb                P_UseSpecialLine
 *fill*         0x000000000002292e        0x2 
 .text          0x0000000000022930      0x1af build/p_telept.o
                0x0000000000022930                EV_Teleport
 *fill*         0x0000000000022adf        0x1 
 .text          0x0000000000022ae0      0x137 build/p_tick.o
                0x0000000000022ae0                P_InitThinkers
                0x0000000000022af6                P_AddThinker
                0x0000000000022b17                P_RemoveThinker
                0x0000000000022b20                P_AllocateThinker
                0x0000000000022b21                P_RunThinkers
                0x0000000000022b75                P_Ticker
 *fill*         0x0000000000022c17        0x1 
 .text          0x0000000000022c18      0x4df build/p_user.o
                0x0000000000022c18                P_Thrust
                0x0000000000022c5c                P_CalcHeight
                0x0000000000022d76                P_MovePlayer
                0x0000000000022e0d                P_DeathThink
                0x0000000000022ed9                P_PlayerThink
 *fill*         0x00000000000230f7        0x1 
 .text          0x00000000000230f8      0x562 build/r_bsp.o
                0x00000000000230f8                R_ClearDrawSegs
                0x0000000000023107                R_ClipSolidWallSegment
                0x00000000000231f2                R_ClipPassWallSegment
                0x0000000000023257                R_ClearClipSegs
                0x000000000002328a                R_AddLine
                0x00000000000233a7                R_CheckBBox
                0x00000000000234ce                R_Subsector
                0x00000000000235bb                R_RenderBSPNode
 *fill*         0x000000000002365a        0x2 
 .text          0x000000000002365c      0xeed build/r_data.o
                0x000000000002365c                R_DrawColumnInCache
                0x00000000000236ce                R_GenerateComposite
                0x000000000002380d                R_GenerateLookup
                0x00000000000239b9                R_GetColumn
                0x0000000000023a2a                R_InitTextures
                0x0000000000023f76                R_InitFlats
                0x0000000000023fe7                R_InitSpriteLumps
                0x00000000000240e0                R_InitColormaps
                0x0000000000024102                R_InitData
                0x0000000000024151                R_FlatNumForName
                0x0000000000024196                R_CheckTextureNumForName
                0x00000000000241f1                R_TextureNumForName
                0x000000000002421f                R_PrecacheLevel
 *fill*         0x0000000000024549        0x3 
 .text          0x000000000002454c      0xc83 build/r_draw.o
                0x000000000002454c                R_DrawColumn
                0x000000000002460f                R_DrawColumnLow
                0x00000000000246e8                R_DrawFuzzColumn
                0x00000000000247d8                R_DrawFuzzColumnLow
                0x00000000000248fb                R_DrawTranslatedColumn
                0x00000000000249c7                R_DrawTranslatedColumnLow
                0x0000000000024ac6                R_InitTranslationTables
                0x0000000000024b55                R_DrawSpan
                0x0000000000024c3f                R_DrawSpanLow
                0x0000000000024d54                R_InitBuffer
                0x0000000000024dda                R_FillBackScreen
                0x000000000002508d                R_VideoErase
                0x00000000000250b4                R_DrawViewBorder
 *fill*         0x00000000000251cf        0x1 
 .text          0x00000000000251d0      0xbc6 build/r_main.o
                0x00000000000251d0                R_AddPointToBox
                0x00000000000251ef                R_PointOnSide
                0x0000000000025266                R_PointOnSegSide
                0x00000000000252ec                R_PointToAngle
                0x0000000000025403                R_PointToAngle2
                0x0000000000025418                R_PointToDist
                0x0000000000025477                R_InitPointToAngle
                0x0000000000025478                R_ScaleFromGlobalAngle
                0x00000000000254fe                R_InitTables
                0x00000000000254ff                R_InitTextureMapping
                0x0000000000025621                R_InitLightTables
                0x00000000000256d3                R_SetViewSize
                0x00000000000256ea                R_ExecuteSetViewSize
                0x0000000000025b72                R_Init
                0x0000000000025bfc                R_PointInSubsector
                0x0000000000025c73                R_SetupFrame
                0x0000000000025d4d                R_RenderPlayerView
 *fill*         0x0000000000025d96        0x2 
 .text          0x0000000000025d98      0x9ad build/r_plane.o
                0x0000000000025d98                R_InitPlanes
                0x0000000000025d99                R_MapPlane
                0x0000000000025f7b                R_ClearPlanes
                0x000000000002620a                R_FindPlane
                0x00000000000262c8                R_CheckPlane
                0x0000000000026352                R_MakeSpans
                0x00000000000264a5                R_DrawPlanes
 *fill*         0x0000000000026745        0x3 
 .text          0x0000000000026748      0xe5b build/r_segs.o
                0x0000000000026748                R_RenderMaskedSegRange
                0x000000000002699c                R_RenderSegLoop
                0x0000000000026d35                R_StoreWallRange
 *fill*         0x00000000000275a3        0x1 
 .text          0x00000000000275a4        0xb build/r_sky.o
                0x00000000000275a4                R_InitSkyMap
 *fill*         0x00000000000275af        0x1 
 .text          0x00000000000275b0     0x1146 build/r_things.o
                0x00000000000275b0                R_InstallSpriteLump
                0x00000000000276fb                R_InitSpriteDefs
                0x00000000000279d1                R_InitSprites
                0x00000000000279f4                R_ClearSprites
                0x0000000000027a03                R_NewVisSprite
                0x0000000000027a2a                R_DrawMaskedColumn
                0x0000000000027b47                R_DrawVisSprite
                0x0000000000027caa                R_ProjectSprite
                0x0000000000027fc9                R_AddSprites
                0x0000000000028033                R_DrawPSprite
                0x0000000000028235                R_DrawPlayerSprites
                0x00000000000282d5                R_SortVisSprites
                0x00000000000283c4                R_DrawSprite
                0x0000000000028660                R_DrawMasked
 *fill*         0x00000000000286f6        0x2 
 .text          0x00000000000286f8     0x133a build/sha1.o
                0x00000000000286f8                SHA1_Init
                0x0000000000028713                SHA1_Update
                0x00000000000298b3                SHA1_Final
                0x00000000000299f1                SHA1_UpdateInt32
                0x0000000000029a0a                SHA1_UpdateString
 *fill*         0x0000000000029a32        0x2 
 .text          0x0000000000029a34       0x27 build/statdump.o
                0x0000000000029a34                StatCopy
                0x0000000000029a5a                StatDump
 *fill*         0x0000000000029a5b        0x1 
 .text          0x0000000000029a5c      0x3f2 build/st_lib.o
                0x0000000000029a5c                STlib_init
                0x0000000000029a77                STlib_initNum
                0x0000000000029a97                STlib_drawNum
                0x0000000000029c23                STlib_updateNum
                0x0000000000029c31                STlib_initPercent
                0x0000000000029c54                STlib_updatePercent
                0x0000000000029c87                STlib_initMultIcon
                0x0000000000029ca0                STlib_updateMultIcon
                0x0000000000029d78                STlib_initBinIcon
                0x0000000000029d91                STlib_updateBinIcon
 *fill*         0x0000000000029e4e        0x2 
 .text          0x0000000000029e50     0x1ac7 build/st_stuff.o
                0x0000000000029e50                ST_refreshBackground
                0x0000000000029ec1                ST_Responder
                0x000000000002a3b6                ST_calcPainOffset
                0x000000000002a405                ST_updateFaceWidget
                0x000000000002a913                ST_updateWidgets
                0x000000000002a9fd                ST_Ticker
                0x000000000002aa26                ST_doPaletteStuff
                0x000000000002aaf0                ST_drawWidgets
                0x000000000002abfc                ST_doRefresh
                0x000000000002ac17                ST_diffDraw
                0x000000000002ac1e                ST_Drawer
                0x000000000002ac79                ST_loadGraphics
                0x000000000002b01d                ST_loadData
                0x000000000002b036                ST_unloadGraphics
                0x000000000002b3ad                ST_unloadData
                0x000000000002b3b2                ST_initData
                0x000000000002b446                ST_createWidgets
                0x000000000002b809                ST_Start
                0x000000000002b8ba                ST_Stop
                0x000000000002b8e5                ST_Init
 *fill*         0x000000000002b917        0x1 
 .text          0x000000000002b918      0x7b5 build/s_sound.o
                0x000000000002b918                S_Init
                0x000000000002b9d5                S_SetSfxVolume
                0x000000000002b9f8                S_SetMusicVolume
                0x000000000002ba1b                S_Shutdown
                0x000000000002ba27                S_Start
                0x000000000002bb21                S_ChangeMusic
                0x000000000002bbf8                S_StopSound
                0x000000000002bc2f                S_StartSound
                0x000000000002bf52                S_PauseSound
                0x000000000002bf74                S_ResumeSound
                0x000000000002bf96                S_UpdateSounds
                0x000000000002c06e                S_StartMusic
                0x000000000002c075                S_StopMusic
                0x000000000002c0c8                S_MusicPlaying
 *fill*         0x000000000002c0cd        0x3 
 .text          0x000000000002c0d0       0x26 build/tables.o
                0x000000000002c0d0                SlopeDiv
 *fill*         0x000000000002c0f6        0x2 
 .text          0x000000000002c0f8      0xf2f build/v_video.o
                0x000000000002c0f8                V_MarkRect
                0x000000000002c159                V_CopyRect
                0x000000000002c23e                V_SetPatchClipCallback
                0x000000000002c246                V_DrawPatch
                0x000000000002c380                V_DrawPatchFlipped
                0x000000000002c4a5                V_DrawPatchDirect
                0x000000000002c4aa                V_DrawTLPatch
                0x000000000002c5b7                V_DrawXlaPatch
                0x000000000002c69e                V_DrawAltTLPatch
                0x000000000002c7ab                V_DrawShadowedPatch
                0x000000000002c8d1                V_LoadTintTable
                0x000000000002c8ec                V_LoadXlaTable
                0x000000000002c907                V_DrawBlock
                0x000000000002c9ab                V_DrawFilledBox
                0x000000000002ca03                V_DrawHorizLine
                0x000000000002ca2f                V_DrawVertLine
                0x000000000002ca59                V_DrawBox
                0x000000000002cb27                V_DrawRawScreen
                0x000000000002cb3b                V_Init
                0x000000000002cb3c                V_UseBuffer
                0x000000000002cb44                V_RestoreBuffer
                0x000000000002cb56                WritePCXfile
                0x000000000002cc63                V_ScreenShot
                0x000000000002ccf2                V_DrawMouseSpeedBox
 *fill*         0x000000000002d027        0x1 
 .text          0x000000000002d028     0x24c4 build/wi_stuff.o
                0x000000000002d028                WI_slamBackground
                0x000000000002d038                WI_Responder
                0x000000000002d03b                WI_drawLF
                0x000000000002d112                WI_drawEL
                0x000000000002d17e                WI_drawOnLnode
                0x000000000002d241                WI_initAnimatedBack
                0x000000000002d30e                WI_updateAnimatedBack
                0x000000000002d43a                WI_drawAnimatedBack
                0x000000000002d4b9                WI_drawNum
                0x000000000002d5a0                WI_drawPercent
                0x000000000002d5d1                WI_drawTime
                0x000000000002d694                WI_End
                0x000000000002d699                WI_unloadData
                0x000000000002db08                WI_initNoState
                0x000000000002db24                WI_updateNoState
                0x000000000002db3a                WI_initShowNextLoc
                0x000000000002db5a                WI_updateShowNextLoc
                0x000000000002dba9                WI_drawShowNextLoc
                0x000000000002dc78                WI_drawNoState
                0x000000000002dc87                WI_fragSum
                0x000000000002dccc                WI_initDeathmatchStats
                0x000000000002dd7d                WI_updateDeathmatchStats
                0x000000000002dfad                WI_drawDeathmatchStats
                0x000000000002e1ab                WI_initNetgameStats
                0x000000000002e25f                WI_updateNetgameStats
                0x000000000002e622                WI_drawNetgameStats
                0x000000000002e8da                WI_initStats
                0x000000000002e927                WI_updateStats
                0x000000000002ec75                WI_drawStats
                0x000000000002ed98                WI_checkForAccelerate
                0x000000000002ee03                WI_Ticker
                0x000000000002ee89                WI_loadData
                0x000000000002f3b3                WI_Drawer
                0x000000000002f400                WI_initVariables
                0x000000000002f46f                WI_Start
 .text          0x000000000002f4ec      0x12a build/w_checksum.o
                0x000000000002f4ec                W_Checksum
 *fill*         0x000000000002f616        0x2 
 .text          0x000000000002f618       0x2c build/w_file.o
                0x000000000002f618                W_OpenFile
                0x000000000002f635                W_CloseFile
                0x000000000002f63b                W_Read
 .text          0x000000000002f644       0x90 build/w_main.o
                0x000000000002f644                W_ParseCommandLine
 .text          0x000000000002f6d4      0x6ff build/w_wad.o
                0x000000000002f6d4                W_LumpNameHash
                0x000000000002f707                W_AddFile
                0x000000000002f989                W_NumLumps
                0x000000000002f990                W_CheckNumForName
                0x000000000002fa53                W_GetNumForName
                0x000000000002fa80                W_LumpLength
                0x000000000002faae                W_ReadLump
                0x000000000002fb28                W_CacheLumpNum
                0x000000000002fbef                W_CacheLumpName
                0x000000000002fc01                W_ReleaseLumpNum
                0x000000000002fc54                W_ReleaseLumpName
                0x000000000002fc62                W_GenerateHashTable
                0x000000000002fd49                W_CheckCorrectIWAD
 *fill*         0x000000000002fdd3        0x1 
 .text          0x000000000002fdd4      0x62b build/z_zone.o
                0x000000000002fdd4                Z_ClearZone
                0x000000000002fe0b                Z_Init
                0x000000000002fe62                Z_Free
                0x000000000002ff05                Z_Malloc
                0x000000000003002a                Z_FreeTags
                0x000000000003007d                Z_DumpHeap
                0x0000000000030166                Z_FileDumpHeap
                0x0000000000030299                Z_CheckHeap
                0x000000000003033c                Z_ChangeTag2
                0x0000000000030399                Z_ChangeUser
                0x00000000000303c9                Z_FreeMemory
                0x00000000000303f5                Z_ZoneSize
 *fill*         0x00000000000303ff        0x1 
 .text          0x0000000000030400       0xa6 build/w_file_stdc.o
                0x0000000000030400                W_StdC_Read
 *fill*         0x00000000000304a6        0x2 
 .text          0x00000000000304a8      0x11f build/i_input.o
                0x00000000000304a8                I_GetEvent
                0x00000000000305c6                I_InitInput
 *fill*         0x00000000000305c7        0x1 
 .text          0x00000000000305c8      0x45d build/i_video.o
                0x00000000000305c8                cmap_to_rgb565
                0x0000000000030628                cmap_to_fb
                0x0000000000030714                I_InitGraphics
                0x0000000000030896                I_ShutdownGraphics
                0x00000000000308a2                I_StartFrame
                0x00000000000308a3                I_StartTic
                0x00000000000308a8                I_UpdateNoBlit
                0x00000000000308a9                I_FinishUpdate
                0x0000000000030969                I_ReadScreen
                0x000000000003097a                I_SetPalette
                0x00000000000309cc                I_GetPaletteIndex
                0x0000000000030a18                I_BeginRead
                0x0000000000030a19                I_EndRead
                0x0000000000030a1a                I_SetWindowTitle
                0x0000000000030a1f                I_GraphicsCheckCommandLine
                0x0000000000030a20                I_SetGrabMouseCallback
                0x0000000000030a21                I_EnableLoadingDisk
                0x0000000000030a22                I_BindVideoVariables
                0x0000000000030a23                I_DisplayFPSDots
                0x0000000000030a24                I_CheckIsScreensaver
 *fill*         0x0000000000030a25        0x3 
 .text          0x0000000000030a28       0x37 build/doomgeneric.o
                0x0000000000030a28                doomgeneric_Create
 *fill*         0x0000000000030a5f        0x1 
 .text          0x0000000000030a60     0x3916 build/doomgeneric_opssat.o
                0x0000000000030a60                stbi_flip_vertically_on_write
                0x0000000000030a67                stbi_write_bmp_to_func
                0x0000000000030b95                stbi_write_bmp
                0x0000000000030c23                stbi_write_tga_to_func
                0x0000000000031076                stbi_write_tga
                0x0000000000031104                stbi_write_hdr_to_func
                0x000000000003161f                stbi_write_hdr
                0x00000000000316ad                stbi_zlib_compress
                0x000000000003221e                stbi_write_png_to_mem
                0x00000000000328d2                stbi_write_png
                0x0000000000032954                stbi_write_png_to_func
                0x00000000000329a7                stbi_write_jpg_to_func
                0x000000000003365e                stbi_write_jpg
                0x00000000000336f2                BGRtoRGB
                0x0000000000033720                convertBGRtoRGB
                0x0000000000033757                DG_Init
                0x0000000000033763                DG_DrawFrame
                0x00000000000337c5                DG_SleepMs
                0x00000000000337c6                DG_GetTicksMs
                0x00000000000337d8                DG_GetKey
                0x00000000000337db                DG_SetWindowTitle
                0x00000000000337e7                main
 *(.gnu.warning)

.fini           0x0000000000034378        0xd
 *(SORT_NONE(.fini))
 .fini          0x0000000000034378        0x8 /lib/x86_64-linux-gnu/crti.o
                0x0000000000034378                _fini
 .fini          0x0000000000034380        0x5 /lib/x86_64-linux-gnu/crtn.o
                [!provide]                        PROVIDE (__etext = .)
                [!provide]                        PROVIDE (_etext = .)
                [!provide]                        PROVIDE (etext = .)
                0x0000000000035000                . = ALIGN (CONSTANT (MAXPAGESIZE))
                0x0000000000035000                . = SEGMENT_START ("rodata-segment", (ALIGN (CONSTANT (MAXPAGESIZE)) + (. & (CONSTANT (MAXPAGESIZE) - 0x1))))

.rodata         0x0000000000035000    0x1a170
 *(.rodata .rodata.* .gnu.linkonce.r.*)
 .rodata.str1.1
                0x0000000000035000       0x67 build/am_map.o
 *fill*         0x0000000000035067        0x9 
 .rodata.cst32  0x0000000000035070       0x20 build/am_map.o
 .rodata.cst16  0x0000000000035090       0x10 build/am_map.o
 .rodata.str1.1
                0x00000000000350a0      0x328 build/dstrings.o
 .rodata.str1.1
                0x00000000000353c8      0x1b6 build/d_iwad.o
                                        0x1d3 (size before relaxing)
 .rodata.str1.1
                0x000000000003557e       0x6e build/d_loop.o
 *fill*         0x00000000000355ec        0x4 
 .rodata        0x00000000000355f0       0xf4 build/d_main.o
 *fill*         0x00000000000356e4        0xc 
 .rodata.cst16  0x00000000000356f0       0x10 build/d_main.o
 .rodata.str1.1
                0x0000000000035700      0x947 build/d_main.o
                                        0x995 (size before relaxing)
 *fill*         0x0000000000036047        0x9 
 .rodata        0x0000000000036050      0x160 build/d_mode.o
 .rodata.str1.1
                0x00000000000361b0       0x1a build/d_mode.o
                                         0x3c (size before relaxing)
 .rodata.str1.1
                0x00000000000361ca      0x155 build/d_net.o
                                        0x16d (size before relaxing)
 *fill*         0x000000000003631f        0x1 
 .rodata        0x0000000000036320       0x10 build/f_finale.o
 .rodata.str1.1
                0x0000000000036330     0x1ef5 build/f_finale.o
                                       0x1f08 (size before relaxing)
 *fill*         0x0000000000038225        0xb 
 .rodata        0x0000000000038230       0xec build/g_game.o
 *fill*         0x000000000003831c        0x4 
 .rodata.cst16  0x0000000000038320       0x20 build/g_game.o
 .rodata.cst4   0x0000000000038340        0x4 build/g_game.o
 .rodata.str1.1
                0x0000000000038344      0x348 build/g_game.o
                                        0x369 (size before relaxing)
 .rodata        0x000000000003868c       0x10 build/hu_stuff.o
 .rodata.str1.1
                0x000000000003869c      0xc0f build/hu_stuff.o
 .rodata.str1.1
                0x00000000000392ab      0x2a3 build/info.o
                                        0x2b2 (size before relaxing)
 .rodata.str1.1
                0x000000000003954e       0xa7 build/i_joystick.o
 .rodata.str1.1
                0x00000000000395f5       0x9e build/i_sound.o
                                         0x9f (size before relaxing)
 .rodata.str1.1
                0x0000000000039693      0x211 build/i_system.o
 .rodata        0x00000000000398a4       0x1e build/i_system.o
 *fill*         0x00000000000398c2        0xe 
 .rodata.cst16  0x00000000000398d0       0x10 build/m_bbox.o
 .rodata        0x00000000000398e0      0x220 build/m_config.o
 .rodata.str1.1
                0x0000000000039b00      0xa6e build/m_config.o
                                        0xc1c (size before relaxing)
 .rodata.str1.1
                0x000000000003a56e       0x16 build/m_controls.o
                                        0x630 (size before relaxing)
 .rodata.str1.1
                0x000000000003a584      0x3f7 build/m_menu.o
                                        0x40f (size before relaxing)
 *fill*         0x000000000003a97b        0x1 
 .rodata        0x000000000003a97c       0x10 build/m_menu.o
 .rodata.str1.1
                0x000000000003a98c       0xde build/m_misc.o
                                         0xec (size before relaxing)
 *fill*         0x000000000003aa6a        0x6 
 .rodata        0x000000000003aa70      0x100 build/m_random.o
 .rodata        0x000000000003ab70       0x30 build/p_ceilng.o
 .rodata        0x000000000003aba0       0x50 build/p_doors.o
 .rodata.str1.1
                0x000000000003abf0      0x137 build/p_doors.o
 *fill*         0x000000000003ad27        0x1 
 .rodata        0x000000000003ad28       0x10 build/p_enemy.o
 .rodata.str1.1
                0x000000000003ad38       0x3b build/p_enemy.o
 *fill*         0x000000000003ad73        0x1 
 .rodata        0x000000000003ad74       0x34 build/p_floor.o
 .rodata        0x000000000003ada8       0xc4 build/p_inter.o
 .rodata.str1.1
                0x000000000003ae6c      0x3d7 build/p_inter.o
 .rodata.str1.1
                0x000000000003b243       0x72 build/p_map.o
 *fill*         0x000000000003b2b5        0x3 
 .rodata        0x000000000003b2b8       0x10 build/p_maputl.o
 .rodata.str1.1
                0x000000000003b2c8       0x2d build/p_mobj.o
 *fill*         0x000000000003b2f5        0x3 
 .rodata        0x000000000003b2f8       0x14 build/p_plats.o
 .rodata.str1.1
                0x000000000003b30c       0x45 build/p_plats.o
 *fill*         0x000000000003b351        0x3 
 .rodata        0x000000000003b354       0x20 build/p_saveg.o
 .rodata.str1.1
                0x000000000003b374       0xc3 build/p_saveg.o
                                         0xe1 (size before relaxing)
 .rodata.str1.1
                0x000000000003b437       0x5a build/p_setup.o
 .rodata.str1.1
                0x000000000003b491       0x28 build/p_sight.o
 *fill*         0x000000000003b4b9        0x3 
 .rodata        0x000000000003b4bc      0x2a8 build/p_spec.o
 .rodata.str1.1
                0x000000000003b764      0x242 build/p_spec.o
 *fill*         0x000000000003b9a6        0x2 
 .rodata        0x000000000003b9a8      0x230 build/p_switch.o
 .rodata.str1.1
                0x000000000003bbd8       0x25 build/p_switch.o
 .rodata.str1.1
                0x000000000003bbfd       0x23 build/r_bsp.o
 .rodata.str1.1
                0x000000000003bc20      0x120 build/r_data.o
                                        0x12e (size before relaxing)
 .rodata.str1.1
                0x000000000003bd40       0xa6 build/r_draw.o
 *fill*         0x000000000003bde6        0xa 
 .rodata.cst16  0x000000000003bdf0       0x60 build/r_main.o
 .rodata.cst16  0x000000000003be50       0x60 build/r_plane.o
 .rodata.str1.1
                0x000000000003be50       0xa6 build/r_plane.o
 .rodata.str1.1
                0x000000000003bef6       0x20 build/r_segs.o
 .rodata.str1.1
                0x000000000003bf16      0x1d2 build/r_things.o
 *fill*         0x000000000003c0e8        0x8 
 .rodata.cst16  0x000000000003c0f0       0x10 build/sha1.o
 .rodata.str1.1
                0x000000000003c100      0x186 build/sounds.o
                                        0x191 (size before relaxing)
 .rodata.str1.1
                0x000000000003c286        0xa build/statdump.o
 .rodata.str1.1
                0x000000000003c286       0x5b build/st_lib.o
 .rodata.str1.1
                0x000000000003c2e1      0x1b1 build/st_stuff.o
                                        0x1b9 (size before relaxing)
 *fill*         0x000000000003c492        0xe 
 .rodata        0x000000000003c4a0       0x24 build/s_sound.o
 .rodata.str1.1
                0x000000000003c4c4       0x69 build/s_sound.o
 *fill*         0x000000000003c52d        0x3 
 .rodata        0x000000000003c530    0x10510 build/tables.o
                0x000000000003c530                finetangent
                0x0000000000040530                finesine
                0x000000000004a530                tantoangle
                0x000000000004c540                gammatable
 .rodata.cst4   0x000000000004ca40        0x4 build/v_video.o
 *fill*         0x000000000004ca44        0xc 
 .rodata.cst16  0x000000000004ca50       0x10 build/v_video.o
 .rodata.cst8   0x000000000004ca60        0x8 build/v_video.o
 .rodata.str1.1
                0x000000000004ca68      0x100 build/v_video.o
                                        0x108 (size before relaxing)
 *fill*         0x000000000004cb68        0x8 
 .rodata        0x000000000004cb70      0x170 build/wi_stuff.o
 .rodata.str1.1
                0x000000000004cce0       0xf9 build/wi_stuff.o
                                        0x10b (size before relaxing)
 *fill*         0x000000000004cdd9        0x7 
 .rodata.str4.16
                0x000000000004cde0       0x10 build/wi_stuff.o
 .rodata.str1.1
                0x000000000004cdf0        0x6 build/w_file.o
 .rodata.str1.1
                0x000000000004cdf6        0x6 build/w_main.o
                                         0x12 (size before relaxing)
 .rodata.str1.1
                0x000000000004cdfc      0x1d2 build/w_wad.o
                                        0x1d6 (size before relaxing)
 .rodata.str1.1
                0x000000000004cfce      0x323 build/z_zone.o
 .rodata.str1.1
                0x000000000004d2f1        0x3 build/w_file_stdc.o
 *fill*         0x000000000004d2f1        0xf 
 .rodata        0x000000000004d300       0x80 build/i_input.o
 .rodata.str1.1
                0x000000000004d380      0x15b build/i_video.o
 *fill*         0x000000000004d4db        0x5 
 .rodata        0x000000000004d4e0     0x199c build/doomgeneric_opssat.o
 *fill*         0x000000000004ee7c        0x4 
 .rodata.cst16  0x000000000004ee80       0x20 build/doomgeneric_opssat.o
 .rodata.cst4   0x000000000004eea0       0x3c build/doomgeneric_opssat.o
 .rodata.cst8   0x000000000004eedc        0x8 build/doomgeneric_opssat.o
 .rodata.str1.1
                0x000000000004eee4      0x21b build/doomgeneric_opssat.o
                                        0x222 (size before relaxing)
 *fill*         0x000000000004f0ff        0x1 
 .rodata.str1.16
                0x000000000004f100       0x42 build/doomgeneric_opssat.o
 *fill*         0x000000000004f142        0xe 
 .rodata.cst32  0x000000000004f150       0x20 build/doomgeneric_opssat.o

.rodata1
 *(.rodata1)

.eh_frame_hdr   0x000000000004f170     0x1b34
 *(.eh_frame_hdr)
 .eh_frame_hdr  0x000000000004f170     0x1b34 /lib/x86_64-linux-gnu/Scrt1.o
                0x000000000004f170                __GNU_EH_FRAME_HDR
 *(.eh_frame_entry .eh_frame_entry.*)

.eh_frame       0x0000000000050ca8     0x8e78
 *(.eh_frame)
 .eh_frame      0x0000000000050ca8       0x30 /lib/x86_64-linux-gnu/Scrt1.o
                                         0x2c (size before relaxing)
 *fill*         0x0000000000050cd8        0x0 
 .eh_frame      0x0000000000050cd8       0x28 /lib/x86_64-linux-gnu/Scrt1.o
                                         0x40 (size before relaxing)
 .eh_frame      0x0000000000050d00       0x18 /lib/x86_64-linux-gnu/Scrt1.o
                                         0x30 (size before relaxing)
 .eh_frame      0x0000000000050d18        0x0 build/dummy.o
                                         0x30 (size before relaxing)
 .eh_frame      0x0000000000050d18      0x5a0 build/am_map.o
                                        0x5b8 (size before relaxing)
 .eh_frame      0x00000000000512b8       0x28 build/d_event.o
                                         0x40 (size before relaxing)
 .eh_frame      0x00000000000512e0      0x158 build/d_iwad.o
                                        0x170 (size before relaxing)
 .eh_frame      0x0000000000051438      0x138 build/d_loop.o
                                        0x150 (size before relaxing)
 .eh_frame      0x0000000000051570      0x278 build/d_main.o
                                        0x290 (size before relaxing)
 .eh_frame      0x00000000000517e8       0x90 build/d_mode.o
                                         0xa8 (size before relaxing)
 .eh_frame      0x0000000000051878       0xb8 build/d_net.o
                                         0xd0 (size before relaxing)
 .eh_frame      0x0000000000051930      0x1e8 build/f_finale.o
                                        0x200 (size before relaxing)
 .eh_frame      0x0000000000051b18      0x1a8 build/f_wipe.o
                                        0x1c0 (size before relaxing)
 .eh_frame      0x0000000000051cc0      0x5d8 build/g_game.o
                                        0x5f0 (size before relaxing)
 .eh_frame      0x0000000000052298      0x278 build/hu_lib.o
                                        0x290 (size before relaxing)
 .eh_frame      0x0000000000052510      0x178 build/hu_stuff.o
                                        0x190 (size before relaxing)
 .eh_frame      0x0000000000052688        0x0 build/i_cdmus.o
                                         0xd0 (size before relaxing)
 .eh_frame      0x0000000000052688       0x18 build/i_endoom.o
                                         0x30 (size before relaxing)
 .eh_frame      0x00000000000526a0       0x78 build/i_joystick.o
                                         0x90 (size before relaxing)
 .eh_frame      0x0000000000052718        0x0 build/i_scale.o
                                        0x390 (size before relaxing)
 .eh_frame      0x0000000000052718      0x198 build/i_sound.o
                                        0x1b0 (size before relaxing)
 .eh_frame      0x00000000000528b0      0x188 build/i_system.o
                                        0x1a0 (size before relaxing)
 .eh_frame      0x0000000000052a38       0x80 build/i_timer.o
                                         0x98 (size before relaxing)
 .eh_frame      0x0000000000052ab8        0x0 build/memio.o
                                        0x128 (size before relaxing)
 .eh_frame      0x0000000000052ab8       0x98 build/m_argv.o
                                         0xb0 (size before relaxing)
 .eh_frame      0x0000000000052b50       0x28 build/m_bbox.o
                                         0x40 (size before relaxing)
 .eh_frame      0x0000000000052b78       0x50 build/m_cheat.o
                                         0x68 (size before relaxing)
 .eh_frame      0x0000000000052bc8      0x190 build/m_config.o
                                        0x1a8 (size before relaxing)
 .eh_frame      0x0000000000052d58      0x130 build/m_controls.o
                                        0x148 (size before relaxing)
 .eh_frame      0x0000000000052e88       0x28 build/m_fixed.o
                                         0x40 (size before relaxing)
 .eh_frame      0x0000000000052eb0      0x6b8 build/m_menu.o
                                        0x6d0 (size before relaxing)
 .eh_frame      0x0000000000053568      0x378 build/m_misc.o
                                        0x390 (size before relaxing)
 .eh_frame      0x00000000000538e0       0x40 build/m_random.o
                                         0x58 (size before relaxing)
 .eh_frame      0x0000000000053920       0xf0 build/p_ceilng.o
                                        0x108 (size before relaxing)
 .eh_frame      0x0000000000053a10      0x120 build/p_doors.o
                                        0x138 (size before relaxing)
 .eh_frame      0x0000000000053b30      0xa70 build/p_enemy.o
                                        0xa88 (size before relaxing)
 .eh_frame      0x00000000000545a0      0x108 build/p_floor.o
                                        0x120 (size before relaxing)
 .eh_frame      0x00000000000546a8      0x198 build/p_inter.o
                                        0x1b0 (size before relaxing)
 .eh_frame      0x0000000000054840      0x1d0 build/p_lights.o
                                        0x1e8 (size before relaxing)
 .eh_frame      0x0000000000054a10      0x420 build/p_map.o
                                        0x438 (size before relaxing)
 .eh_frame      0x0000000000054e30      0x308 build/p_maputl.o
                                        0x320 (size before relaxing)
 .eh_frame      0x0000000000055138      0x408 build/p_mobj.o
                                        0x420 (size before relaxing)
 .eh_frame      0x0000000000055540      0x100 build/p_plats.o
                                        0x118 (size before relaxing)
 .eh_frame      0x0000000000055640      0x440 build/p_pspr.o
                                        0x458 (size before relaxing)
 .eh_frame      0x0000000000055a80      0x438 build/p_saveg.o
                                        0x450 (size before relaxing)
 .eh_frame      0x0000000000055eb8      0x290 build/p_setup.o
                                        0x2a8 (size before relaxing)
 .eh_frame      0x0000000000056148      0x110 build/p_sight.o
                                        0x128 (size before relaxing)
 .eh_frame      0x0000000000056258      0x318 build/p_spec.o
                                        0x330 (size before relaxing)
 .eh_frame      0x0000000000056570       0xd8 build/p_switch.o
                                         0xf0 (size before relaxing)
 .eh_frame      0x0000000000056648       0x50 build/p_telept.o
                                         0x68 (size before relaxing)
 .eh_frame      0x0000000000056698       0xa8 build/p_tick.o
                                         0xc0 (size before relaxing)
 .eh_frame      0x0000000000056740       0xc0 build/p_user.o
                                         0xd8 (size before relaxing)
 .eh_frame      0x0000000000056800      0x190 build/r_bsp.o
                                        0x1a8 (size before relaxing)
 .eh_frame      0x0000000000056990      0x290 build/r_data.o
                                        0x2a8 (size before relaxing)
 .eh_frame      0x0000000000056c20      0x220 build/r_draw.o
                                        0x238 (size before relaxing)
 .eh_frame      0x0000000000056e40      0x268 build/r_main.o
                                        0x280 (size before relaxing)
 .eh_frame      0x00000000000570a8      0x178 build/r_plane.o
                                        0x190 (size before relaxing)
 .eh_frame      0x0000000000057220       0xe8 build/r_segs.o
                                        0x100 (size before relaxing)
 .eh_frame      0x0000000000057308       0x18 build/r_sky.o
                                         0x30 (size before relaxing)
 .eh_frame      0x0000000000057320      0x2e8 build/r_things.o
                                        0x300 (size before relaxing)
 .eh_frame      0x0000000000057608      0x118 build/sha1.o
                                        0x130 (size before relaxing)
 .eh_frame      0x0000000000057720       0x30 build/statdump.o
                                         0x48 (size before relaxing)
 .eh_frame      0x0000000000057750      0x190 build/st_lib.o
                                        0x1a8 (size before relaxing)
 .eh_frame      0x00000000000578e0      0x2e0 build/st_stuff.o
                                        0x2f8 (size before relaxing)
 .eh_frame      0x0000000000057bc0      0x270 build/s_sound.o
                                        0x288 (size before relaxing)
 .eh_frame      0x0000000000057e30       0x18 build/tables.o
                                         0x30 (size before relaxing)
 .eh_frame      0x0000000000057e48      0x460 build/v_video.o
                                        0x478 (size before relaxing)
 .eh_frame      0x00000000000582a8      0x668 build/wi_stuff.o
                                        0x680 (size before relaxing)
 .eh_frame      0x0000000000058910       0x50 build/w_checksum.o
                                         0x68 (size before relaxing)
 .eh_frame      0x0000000000058960       0x48 build/w_file.o
                                         0x60 (size before relaxing)
 .eh_frame      0x00000000000589a8       0x48 build/w_main.o
                                         0x60 (size before relaxing)
 .eh_frame      0x00000000000589f0      0x260 build/w_wad.o
                                        0x278 (size before relaxing)
 .eh_frame      0x0000000000058c50      0x220 build/z_zone.o
                                        0x238 (size before relaxing)
 .eh_frame      0x0000000000058e70       0x70 build/w_file_stdc.o
                                         0x88 (size before relaxing)
 .eh_frame      0x0000000000058ee0       0x60 build/i_input.o
                                         0x78 (size before relaxing)
 .eh_frame      0x0000000000058f40      0x228 build/i_video.o
                                        0x240 (size before relaxing)
 .eh_frame      0x0000000000059168       0x18 build/doomgeneric.o
                                         0x30 (size before relaxing)
 .eh_frame      0x0000000000059180      0x99c build/doomgeneric_opssat.o
                                        0x9b8 (size before relaxing)
 .eh_frame      0x0000000000059b1c        0x4 /usr/bin/../lib/gcc/x86_64-linux-gnu/11/crtendS.o
 *(.eh_frame.*)

.gcc_except_table
 *(.gcc_except_table .gcc_except_table.*)

.gnu_extab
 *(.gnu_extab*)

.exception_ranges
 *(.exception_ranges*)
                0x000000000005b7b0                . = DATA_SEGMENT_ALIGN (CONSTANT (MAXPAGESIZE), CONSTANT (COMMONPAGESIZE))

.eh_frame
 *(.eh_frame)
 *(.eh_frame.*)

.gnu_extab
 *(.gnu_extab)

.gcc_except_table
 *(.gcc_except_table .gcc_except_table.*)

.exception_ranges
 *(.exception_ranges*)

.tdata          0x000000000005b7b0        0x0
                [!provide]                        PROVIDE (__tdata_start = .)
 *(.tdata .tdata.* .gnu.linkonce.td.*)

.tbss
 *(.tbss .tbss.* .gnu.linkonce.tb.*)
 *(.tcommon)

.preinit_array  0x000000000005b7b0        0x0
                [!provide]                        PROVIDE (__preinit_array_start = .)
 *(.preinit_array)
                [!provide]                        PROVIDE (__preinit_array_end = .)

.init_array     0x000000000005b7b0        0x8
                [!provide]                        PROVIDE (__init_array_start = .)
 *(SORT_BY_INIT_PRIORITY(.init_array.*) SORT_BY_INIT_PRIORITY(.ctors.*))
 *(.init_array EXCLUDE_FILE(*crtend?.o *crtend.o *crtbegin?.o *crtbegin.o) .ctors)
 .init_array    0x000000000005b7b0        0x8 /usr/bin/../lib/gcc/x86_64-linux-gnu/11/crtbeginS.o
                [!provide]                        PROVIDE (__init_array_end = .)

.fini_array     0x000000000005b7b8        0x8
                [!provide]                        PROVIDE (__fini_array_start = .)
 *(SORT_BY_INIT_PRIORITY(.fini_array.*) SORT_BY_INIT_PRIORITY(.dtors.*))
 *(.fini_array EXCLUDE_FILE(*crtend?.o *crtend.o *crtbegin?.o *crtbegin.o) .dtors)
 .fini_array    0x000000000005b7b8        0x8 /usr/bin/../lib/gcc/x86_64-linux-gnu/11/crtbeginS.o
                [!provide]                        PROVIDE (__fini_array_end = .)

.ctors
 *crtbegin.o(.ctors)
 *crtbegin?.o(.ctors)
 *(EXCLUDE_FILE(*crtend?.o *crtend.o) .ctors)
 *(SORT_BY_NAME(.ctors.*))
 *(.ctors)

.dtors
 *crtbegin.o(.dtors)
 *crtbegin?.o(.dtors)
 *(EXCLUDE_FILE(*crtend?.o *crtend.o) .dtors)
 *(SORT_BY_NAME(.dtors.*))
 *(.dtors)

.jcr
 *(.jcr)

.data.rel.ro    0x000000000005b7c0      0x570
 *(.data.rel.ro.local* .gnu.linkonce.d.rel.ro.local.*)
 *(.data.rel.ro .data.rel.ro.* .gnu.linkonce.d.rel.ro.*)
 .data.rel.ro   0x000000000005b7c0        0x0 /lib/x86_64-linux-gnu/Scrt1.o
 .data.rel.ro   0x000000000005b7c0      0x150 build/d_iwad.o
 .data.rel.ro   0x000000000005b910      0x120 build/d_main.o
 .data.rel.ro   0x000000000005ba30       0x30 build/f_wipe.o
 .data.rel.ro   0x000000000005ba60       0x40 build/g_game.o
 .data.rel.ro   0x000000000005baa0      0x228 build/p_maputl.o
 *fill*         0x000000000005bcc8        0x8 
 .data.rel.ro   0x000000000005bcd0       0x20 build/wi_stuff.o
 .data.rel.ro   0x000000000005bcf0       0x40 build/w_wad.o

.dynamic        0x000000000005bd30      0x200
 *(.dynamic)
 .dynamic       0x000000000005bd30      0x200 /lib/x86_64-linux-gnu/Scrt1.o
                0x000000000005bd30                _DYNAMIC

.got            0x000000000005bf30       0xc8
 *(.got)
 .got           0x000000000005bf30       0xc8 /lib/x86_64-linux-gnu/Scrt1.o
 *(.igot)
                0x000000000005cfe8                . = DATA_SEGMENT_RELRO_END (., (SIZEOF (.got.plt) >= 0x18)?0x18:0x0)

.got.plt        0x000000000005c000      0x188
 *(.got.plt)
 .got.plt       0x000000000005c000      0x188 /lib/x86_64-linux-gnu/Scrt1.o
                0x000000000005c000                _GLOBAL_OFFSET_TABLE_
 *(.igot.plt)

.data           0x000000000005c190    0x134e4
 *(.data .data.* .gnu.linkonce.d.*)
 .data.rel.local
                0x000000000005c190        0x8 /usr/bin/../lib/gcc/x86_64-linux-gnu/11/crtbeginS.o
                0x000000000005c190                __dso_handle
 *fill*         0x000000000005c198        0x8 
 .data          0x000000000005c1a0      0x250 build/am_map.o
                0x000000000005c1a0                player_arrow
                0x000000000005c210                cheat_player_arrow
                0x000000000005c310                triangle_guy
                0x000000000005c340                thintriangle_guy
                0x000000000005c370                cheat_amap
 .data          0x000000000005c3f0        0x8 build/doomstat.o
                0x000000000005c3f0                gamemode
                0x000000000005c3f4                gameversion
 *fill*         0x000000000005c3f8        0x8 
 .data          0x000000000005c400       0x80 build/dstrings.o
                0x000000000005c400                doom1_endmsg
                0x000000000005c440                doom2_endmsg
 .data          0x000000000005c480       0xd8 build/d_items.o
                0x000000000005c480                weaponinfo
 .data          0x000000000005c558        0xc build/d_main.o
                0x000000000005c558                show_endoom
                0x000000000005c55c                wipegamestate
 *fill*         0x000000000005c564        0x4 
 .data          0x000000000005c568       0x20 build/d_net.o
 *fill*         0x000000000005c588        0x8 
 .data          0x000000000005c590      0x3e0 build/f_finale.o
                0x000000000005c850                castorder
 .data          0x000000000005c970      0x150 build/g_game.o
                0x000000000005c970                precache
                0x000000000005c974                forwardmove
                0x000000000005c97c                sidemove
                0x000000000005c984                angleturn
                0x000000000005c990                vanilla_savegame_limit
                0x000000000005c994                vanilla_demo_limit
                0x000000000005c9a0                pars
                0x000000000005ca40                cpars
 .data          0x000000000005cac0      0x4e0 build/hu_stuff.o
                0x000000000005cac0                chat_macros
                0x000000000005cb10                player_names
                0x000000000005cb30                mapnames
                0x000000000005cca0                mapnames_commercial
 .data          0x000000000005cfa0     0xccbc build/info.o
                0x000000000005cfa0                sprnames
                0x000000000005d400                states
                0x0000000000066b20                mobjinfo
 *fill*         0x0000000000069c5c        0x4 
 .data          0x0000000000069c60       0x38 build/i_joystick.o
 .data          0x0000000000069c98       0x20 build/i_sound.o
                0x0000000000069c98                snd_samplerate
                0x0000000000069c9c                snd_cachesize
                0x0000000000069ca0                snd_maxslicetime_ms
                0x0000000000069ca8                snd_musiccmd
                0x0000000000069cb0                snd_musicdevice
                0x0000000000069cb4                snd_sfxdevice
 .data          0x0000000000069cb8        0x8 build/i_system.o
 .data          0x0000000000069cc0     0x1890 build/m_config.o
 .data          0x000000000006b550      0x19c build/m_controls.o
                0x000000000006b550                key_right
                0x000000000006b554                key_left
                0x000000000006b558                key_up
                0x000000000006b55c                key_down
                0x000000000006b560                key_strafeleft
                0x000000000006b564                key_straferight
                0x000000000006b568                key_fire
                0x000000000006b56c                key_use
                0x000000000006b570                key_strafe
                0x000000000006b574                key_speed
                0x000000000006b578                key_flyup
                0x000000000006b57c                key_flydown
                0x000000000006b580                key_flycenter
                0x000000000006b584                key_lookup
                0x000000000006b588                key_lookdown
                0x000000000006b58c                key_lookcenter
                0x000000000006b590                key_invleft
                0x000000000006b594                key_invright
                0x000000000006b598                key_useartifact
                0x000000000006b59c                key_jump
                0x000000000006b5a0                key_arti_all
                0x000000000006b5a4                key_arti_health
                0x000000000006b5a8                key_arti_poisonbag
                0x000000000006b5ac                key_arti_blastradius
                0x000000000006b5b0                key_arti_teleport
                0x000000000006b5b4                key_arti_teleportother
                0x000000000006b5b8                key_arti_egg
                0x000000000006b5bc                key_arti_invulnerability
                0x000000000006b5c0                key_usehealth
                0x000000000006b5c4                key_invquery
                0x000000000006b5c8                key_mission
                0x000000000006b5cc                key_invpop
                0x000000000006b5d0                key_invkey
                0x000000000006b5d4                key_invhome
                0x000000000006b5d8                key_invend
                0x000000000006b5dc                key_invuse
                0x000000000006b5e0                key_invdrop
                0x000000000006b5e4                mousebstrafe
                0x000000000006b5e8                mousebforward
                0x000000000006b5ec                mousebjump
                0x000000000006b5f0                mousebstrafeleft
                0x000000000006b5f4                mousebstraferight
                0x000000000006b5f8                mousebbackward
                0x000000000006b5fc                mousebuse
                0x000000000006b600                mousebprevweapon
                0x000000000006b604                mousebnextweapon
                0x000000000006b608                key_message_refresh
                0x000000000006b60c                key_pause
                0x000000000006b610                key_demo_quit
                0x000000000006b614                key_spy
                0x000000000006b618                key_multi_msg
                0x000000000006b61c                key_weapon1
                0x000000000006b620                key_weapon2
                0x000000000006b624                key_weapon3
                0x000000000006b628                key_weapon4
                0x000000000006b62c                key_weapon5
                0x000000000006b630                key_weapon6
                0x000000000006b634                key_weapon7
                0x000000000006b638                key_weapon8
                0x000000000006b63c                key_map_north
                0x000000000006b640                key_map_south
                0x000000000006b644                key_map_east
                0x000000000006b648                key_map_west
                0x000000000006b64c                key_map_zoomin
                0x000000000006b650                key_map_zoomout
                0x000000000006b654                key_map_toggle
                0x000000000006b658                key_map_maxzoom
                0x000000000006b65c                key_map_follow
                0x000000000006b660                key_map_grid
                0x000000000006b664                key_map_mark
                0x000000000006b668                key_map_clearmark
                0x000000000006b66c                key_menu_activate
                0x000000000006b670                key_menu_up
                0x000000000006b674                key_menu_down
                0x000000000006b678                key_menu_left
                0x000000000006b67c                key_menu_right
                0x000000000006b680                key_menu_back
                0x000000000006b684                key_menu_forward
                0x000000000006b688                key_menu_confirm
                0x000000000006b68c                key_menu_abort
                0x000000000006b690                key_menu_help
                0x000000000006b694                key_menu_save
                0x000000000006b698                key_menu_load
                0x000000000006b69c                key_menu_volume
                0x000000000006b6a0                key_menu_detail
                0x000000000006b6a4                key_menu_qsave
                0x000000000006b6a8                key_menu_endgame
                0x000000000006b6ac                key_menu_messages
                0x000000000006b6b0                key_menu_qload
                0x000000000006b6b4                key_menu_quit
                0x000000000006b6b8                key_menu_gamma
                0x000000000006b6bc                key_menu_incscreen
                0x000000000006b6c0                key_menu_decscreen
                0x000000000006b6c4                joybstrafe
                0x000000000006b6c8                joybuse
                0x000000000006b6cc                joybspeed
                0x000000000006b6d0                joybstrafeleft
                0x000000000006b6d4                joybstraferight
                0x000000000006b6d8                joybjump
                0x000000000006b6dc                joybprevweapon
                0x000000000006b6e0                joybnextweapon
                0x000000000006b6e4                joybmenu
                0x000000000006b6e8                dclick_use
 *fill*         0x000000000006b6ec        0x4 
 .data          0x000000000006b6f0      0x7c0 build/m_menu.o
                0x000000000006b6f0                mouseSensitivity
                0x000000000006b6f4                showMessages
                0x000000000006b6f8                screenblocks
                0x000000000006b700                gammamsg
                0x000000000006b790                skullName
                0x000000000006b7a0                MainMenu
                0x000000000006b860                MainDef
                0x000000000006b890                EpisodeMenu
                0x000000000006b910                EpiDef
                0x000000000006b940                NewGameMenu
                0x000000000006b9e0                NewDef
                0x000000000006ba10                OptionsMenu
                0x000000000006bb10                OptionsDef
                0x000000000006bb40                ReadMenu1
                0x000000000006bb60                ReadDef1
                0x000000000006bb90                ReadMenu2
                0x000000000006bbb0                ReadDef2
                0x000000000006bbe0                SoundMenu
                0x000000000006bc60                SoundDef
                0x000000000006bc90                LoadMenu
                0x000000000006bd50                LoadDef
                0x000000000006bd80                SaveMenu
                0x000000000006be40                SaveDef
                0x000000000006be70                quitsounds
                0x000000000006be90                quitsounds2
 .data          0x000000000006beb0       0x84 build/p_enemy.o
                0x000000000006beb0                opposite
                0x000000000006bee0                diags
                0x000000000006bef0                xspeed
                0x000000000006bf10                yspeed
                0x000000000006bf30                TRACEANGLE
 *fill*         0x000000000006bf34        0xc 
 .data          0x000000000006bf40       0x20 build/p_inter.o
                0x000000000006bf40                maxammo
                0x000000000006bf50                clipammo
 .data          0x000000000006bf60      0x284 build/p_spec.o
                0x000000000006bf60                animdefs
 *fill*         0x000000000006c1e4        0xc 
 .data          0x000000000006c1f0      0x334 build/p_switch.o
                0x000000000006c1f0                alphSwitchList
 *fill*         0x000000000006c524        0xc 
 .data          0x000000000006c530       0xc0 build/r_bsp.o
                0x000000000006c530                checkcoord
 .data          0x000000000006c5f0       0xc8 build/r_draw.o
                0x000000000006c5f0                fuzzoffset
 .data          0x000000000006c6b8        0x4 build/r_main.o
                0x000000000006c6b8                validcount
 *fill*         0x000000000006c6bc        0x4 
 .data          0x000000000006c6c0     0x23c0 build/sounds.o
                0x000000000006c6c0                S_music
                0x000000000006cf40                S_sfx
 .data          0x000000000006ea80      0x490 build/st_stuff.o
                0x000000000006ea80                cheat_mus
                0x000000000006eac8                cheat_god
                0x000000000006eb10                cheat_ammo
                0x000000000006eb58                cheat_ammonokey
                0x000000000006eba0                cheat_noclip
                0x000000000006ebe8                cheat_commercial_noclip
                0x000000000006ec30                cheat_powerup
                0x000000000006ee28                cheat_choppers
                0x000000000006ee70                cheat_clev
                0x000000000006eeb8                cheat_mypos
 .data          0x000000000006ef10        0xc build/s_sound.o
                0x000000000006ef10                sfxVolume
                0x000000000006ef14                musicVolume
                0x000000000006ef18                snd_channels
 *fill*         0x000000000006ef1c        0x4 
 .data          0x000000000006ef20        0x8 build/tables.o
                0x000000000006ef20                finecosine
 *fill*         0x000000000006ef28        0x8 
 .data          0x000000000006ef30      0x710 build/wi_stuff.o
 .data          0x000000000006f640       0x18 build/w_file_stdc.o
                0x000000000006f640                stdc_wad_file
 .data          0x000000000006f658        0x4 build/i_input.o
                0x000000000006f658                vanilla_keyboard_mapping
 .data          0x000000000006f65c        0xc build/i_video.o
                0x000000000006f65c                fb_scaling
                0x000000000006f660                mouse_acceleration
                0x000000000006f664                mouse_threshold
 .data          0x000000000006f668        0xc build/doomgeneric_opssat.o
                0x000000000006f668                stbi_write_png_compression_level
                0x000000000006f66c                stbi_write_tga_with_rle
                0x000000000006f670                stbi_write_force_png_filter

.tm_clone_table
                0x000000000006f678        0x0
 .tm_clone_table
                0x000000000006f678        0x0 /usr/bin/../lib/gcc/x86_64-linux-gnu/11/crtbeginS.o
 .tm_clone_table
                0x000000000006f678        0x0 /usr/bin/../lib/gcc/x86_64-linux-gnu/11/crtendS.o

.data1
 *(.data1)
                0x000000000006f674                _edata = .
                [!provide]                        PROVIDE (edata = .)
                0x000000000006f678                . = .
                0x000000000006f674                __bss_start = .

.bss            0x000000000006f680    0x40718
 *(.dynbss)
 .dynbss        0x000000000006f680        0x0 /lib/x86_64-linux-gnu/Scrt1.o
 *(.bss .bss.* .gnu.linkonce.b.*)
 .bss           0x000000000006f680        0x1 /usr/bin/../lib/gcc/x86_64-linux-gnu/11/crtbeginS.o
 *fill*         0x000000000006f681        0x3 
 .bss           0x000000000006f684        0x8 build/dummy.o
                0x000000000006f684                net_client_connected
                0x000000000006f688                drone
 *fill*         0x000000000006f68c        0x4 
 .bss           0x000000000006f690      0x188 build/am_map.o
                0x000000000006f690                automapactive
 .bss           0x000000000006f818       0x14 build/doomstat.o
                0x000000000006f818                gamemission
                0x000000000006f820                gamedescription
                0x000000000006f828                modifiedgame
 *fill*         0x000000000006f82c        0x4 
 .bss           0x000000000006f830      0x508 build/d_event.o
 *fill*         0x000000000006fd38        0x8 
 .bss           0x000000000006fd40      0x410 build/d_iwad.o
 .bss           0x0000000000070150     0x5080 build/d_loop.o
                0x0000000000070150                singletics
                0x0000000000070154                ticdup
                0x0000000000070158                lasttime
                0x0000000000075170                gametic
                0x00000000000751a8                offsetms
 .bss           0x00000000000751d0      0x8f0 build/d_main.o
                0x00000000000751d0                main_loop_started
                0x00000000000751d4                storedemo
                0x00000000000751ec                advancedemo
                0x00000000000751f0                bfgedition
                0x00000000000751f4                pagetic
                0x00000000000751f8                pagename
                0x0000000000075200                demosequence
                0x0000000000075204                nomonsters
                0x0000000000075208                respawnparm
                0x000000000007520c                fastparm
                0x0000000000075210                devparm
                0x0000000000075218                iwadfile
                0x0000000000075220                savegamedir
                0x0000000000075228                startskill
                0x000000000007522c                startepisode
                0x0000000000075230                startmap
                0x0000000000075234                autostart
                0x0000000000075238                startloadgame
                0x0000000000075240                wadfile
                0x0000000000075640                mapdir
                0x0000000000075a40                title
 .bss           0x0000000000075ac0       0x60 build/d_net.o
                0x0000000000075ac0                netcmds
 .bss           0x0000000000075b20       0x40 build/f_finale.o
                0x0000000000075b20                finaletext
                0x0000000000075b28                finaleflat
                0x0000000000075b30                finalestage
                0x0000000000075b34                finalecount
                0x0000000000075b38                castnum
                0x0000000000075b40                caststate
                0x0000000000075b48                casttics
                0x0000000000075b4c                castdeath
                0x0000000000075b50                castframes
                0x0000000000075b54                castonmelee
                0x0000000000075b58                castattacking
 .bss           0x0000000000075b60       0x21 build/f_wipe.o
 *fill*         0x0000000000075b81        0xf 
 .bss           0x0000000000075b90     0x1060 build/g_game.o
                0x0000000000075b90                testcontrols
                0x0000000000075ba0                consistancy
                0x0000000000075da0                consoleplayer
                0x00000000000761c4                gamestate
                0x00000000000761e0                mousey
                0x00000000000761e4                mousex
                0x00000000000761e8                testcontrols_mousespeed
                0x00000000000761ec                sendpause
                0x00000000000761f0                sendsave
                0x00000000000761f8                lowres_turn
                0x0000000000076200                gamemap
                0x0000000000076204                levelstarttic
                0x0000000000076210                turbodetected
                0x0000000000076220                playeringame
                0x0000000000076230                players
                0x0000000000076750                gameepisode
                0x0000000000076754                gameskill
                0x0000000000076758                displayplayer
                0x000000000007675c                gameaction
                0x0000000000076760                paused
                0x00000000000767f4                singledemo
                0x00000000000767f8                deathmatch
                0x00000000000767fc                demoplayback
                0x0000000000076800                demorecording
                0x0000000000076860                netgame
                0x0000000000076864                netdemo
                0x0000000000076890                oldgamestate
                0x0000000000076894                bodyqueslot
                0x00000000000768a0                bodyque
                0x00000000000769a0                secretexit
                0x00000000000769a4                wminfo
                0x0000000000076a6c                totalkills
                0x0000000000076a70                totalitems
                0x0000000000076a74                totalsecret
                0x0000000000076a78                viewactive
                0x0000000000076a80                savename
                0x0000000000076b80                d_skill
                0x0000000000076b84                d_episode
                0x0000000000076b88                d_map
                0x0000000000076b8c                respawnmonsters
                0x0000000000076b90                usergame
                0x0000000000076b98                demo_p
                0x0000000000076ba0                longtics
                0x0000000000076ba8                demoend
                0x0000000000076bb0                demoname
                0x0000000000076bb8                demobuffer
                0x0000000000076bc0                defdemoname
                0x0000000000076bc8                starttime
                0x0000000000076bcc                nodrawers
                0x0000000000076bd0                timingdemo
                0x0000000000076bd4                timelimit
 .bss           0x0000000000076bf0      0x80d build/hu_stuff.o
                0x0000000000076bf0                hu_font
                0x0000000000076dfc                message_dontfuckwithme
                0x0000000000076e04                chat_on
                0x00000000000773fc                chat_char
 *fill*         0x00000000000773fd        0x3 
 .bss           0x0000000000077400       0x14 build/i_joystick.o
 .bss           0x0000000000077414       0x10 build/i_sound.o
 *fill*         0x0000000000077424        0x4 
 .bss           0x0000000000077428       0x17 build/i_system.o
 *fill*         0x000000000007743f        0x1 
 .bss           0x0000000000077440        0x4 build/i_timer.o
 *fill*         0x0000000000077444        0x4 
 .bss           0x0000000000077448       0x10 build/m_argv.o
                0x0000000000077448                myargc
                0x0000000000077450                myargv
 .bss           0x0000000000077458       0x18 build/m_config.o
                0x0000000000077468                configdir
 .bss           0x0000000000077470       0x40 build/m_controls.o
                0x0000000000077470                mousebfire
                0x0000000000077474                key_prevweapon
                0x0000000000077478                key_nextweapon
                0x000000000007747c                key_menu_screenshot
                0x0000000000077480                joybfire
                0x0000000000077490                key_multi_msgplayer
 .bss           0x00000000000774b0      0x2ac build/m_menu.o
                0x00000000000774b0                detailLevel
                0x00000000000774c0                savegamestrings
                0x00000000000775b0                saveStringEnter
                0x00000000000775b4                saveSlot
                0x00000000000775b8                quickSaveSlot
                0x00000000000775c0                saveOldString
                0x00000000000775d8                saveCharIndex
                0x00000000000775e0                tempstring
                0x0000000000077630                inhelpscreens
                0x0000000000077634                epi
                0x0000000000077638                screenSize
                0x000000000007763c                itemOn
                0x0000000000077640                currentMenu
                0x0000000000077650                endstring
                0x00000000000776f0                menuactive
                0x00000000000776f4                messageLastMenuActive
                0x00000000000776f8                messageToPrint
                0x0000000000077700                messageString
                0x0000000000077708                messageRoutine
                0x0000000000077710                messageNeedsInput
                0x0000000000077730                whichSkull
                0x0000000000077732                skullAnimCounter
                0x0000000000077734                messx
                0x0000000000077738                messy
                0x000000000007773c                main_e
                0x0000000000077740                episodes_e
                0x0000000000077744                newgame_e
                0x0000000000077748                options_e
                0x000000000007774c                read_e
                0x0000000000077750                read_e2
                0x0000000000077754                sound_e
                0x0000000000077758                load_e
 .bss           0x000000000007775c        0x8 build/m_random.o
                0x000000000007775c                rndindex
                0x0000000000077760                prndindex
 *fill*         0x0000000000077764        0xc 
 .bss           0x0000000000077770       0xf0 build/p_ceilng.o
                0x0000000000077770                activeceilings
 .bss           0x0000000000077860      0x134 build/p_enemy.o
                0x0000000000077860                soundtarget
                0x0000000000077868                viletryx
                0x000000000007786c                viletryy
                0x0000000000077870                corpsehit
                0x0000000000077878                vileobj
                0x0000000000077880                braintargeton
                0x0000000000077884                numbraintargets
                0x0000000000077890                braintargets
 *fill*         0x0000000000077994        0xc 
 .bss           0x00000000000779a0      0x174 build/p_map.o
                0x00000000000779a0                tmthing
                0x00000000000779a8                tmx
                0x00000000000779ac                tmy
                0x00000000000779b0                tmflags
                0x00000000000779c0                tmbbox
                0x00000000000779d0                ceilingline
                0x00000000000779d8                tmdropoffz
                0x00000000000779dc                tmfloorz
                0x00000000000779e0                tmceilingz
                0x00000000000779e4                numspechit
                0x00000000000779f0                spechit
                0x0000000000077a90                floatok
                0x0000000000077a94                tmymove
                0x0000000000077a98                tmxmove
                0x0000000000077aa0                slidemo
                0x0000000000077aa8                bestslidefrac
                0x0000000000077aac                secondslidefrac
                0x0000000000077ab0                bestslideline
                0x0000000000077ab8                secondslideline
                0x0000000000077ac0                attackrange
                0x0000000000077ac4                shootz
                0x0000000000077ac8                shootthing
                0x0000000000077ad0                aimslope
                0x0000000000077ad8                linetarget
                0x0000000000077ae0                la_damage
                0x0000000000077ae8                usething
                0x0000000000077af0                bombspot
                0x0000000000077af8                bombdamage
                0x0000000000077b00                bombsource
                0x0000000000077b08                nofit
                0x0000000000077b0c                crushchange
 *fill*         0x0000000000077b14        0xc 
 .bss           0x0000000000077b20      0xc04 build/p_maputl.o
                0x0000000000077b20                openrange
                0x0000000000077b24                opentop
                0x0000000000077b28                openbottom
                0x0000000000077b2c                lowfloor
                0x0000000000077b30                trace
                0x0000000000077b40                earlyout
                0x0000000000077b48                intercept_p
                0x0000000000077b50                intercepts
                0x0000000000078720                ptflags
 *fill*         0x0000000000078724        0xc 
 .bss           0x0000000000078730      0x7fc build/p_mobj.o
                0x0000000000078730                itemrespawnque
                0x0000000000078c30                iquehead
                0x0000000000078c40                itemrespawntime
                0x0000000000078e40                iquetail
                0x0000000000078f28                test
 *fill*         0x0000000000078f2c        0x4 
 .bss           0x0000000000078f30       0xf0 build/p_plats.o
                0x0000000000078f30                activeplats
 .bss           0x0000000000079020        0xc build/p_pspr.o
                0x0000000000079020                swingx
                0x0000000000079024                swingy
                0x0000000000079028                bulletslope
 *fill*         0x000000000007902c        0x4 
 .bss           0x0000000000079030       0x2c build/p_saveg.o
                0x0000000000079048                save_stream
                0x0000000000079050                savegamelength
                0x0000000000079054                savegame_error
                0x0000000000079058                specials_e
 *fill*         0x000000000007905c        0x4 
 .bss           0x0000000000079060      0x1c8 build/p_setup.o
                0x0000000000079060                numvertexes
                0x0000000000079068                vertexes
                0x00000000000790f8                numsegs
                0x0000000000079100                segs
                0x0000000000079108                lines
                0x0000000000079110                sides
                0x0000000000079118                numsides
                0x000000000007911c                numsubsectors
                0x0000000000079120                subsectors
                0x0000000000079128                numsectors
                0x0000000000079130                sectors
                0x0000000000079138                numnodes
                0x0000000000079140                nodes
                0x0000000000079148                numlines
                0x0000000000079150                blockmaplump
                0x0000000000079158                blockmap
                0x0000000000079160                bmaporgx
                0x0000000000079164                bmaporgy
                0x0000000000079168                bmapwidth
                0x000000000007916c                bmapheight
                0x0000000000079170                blocklinks
                0x0000000000079180                deathmatchstarts
                0x00000000000791e8                deathmatch_p
                0x00000000000791f0                rejectmatrix
                0x0000000000079200                playerstarts
 .bss           0x0000000000079228       0x2c build/p_sight.o
                0x0000000000079228                strace
                0x0000000000079238                t2x
                0x000000000007923c                t2y
                0x0000000000079240                sightzstart
                0x0000000000079244                bottomslope
                0x0000000000079248                topslope
                0x000000000007924c                sightcounts
 *fill*         0x0000000000079254        0xc 
 .bss           0x0000000000079260      0x4ac build/p_spec.o
                0x0000000000079260                anims
                0x00000000000794e0                lastanim
                0x00000000000794e8                levelTimer
                0x00000000000794ec                levelTimeCount
                0x00000000000794f0                numlinespecials
                0x0000000000079500                linespeciallist
 *fill*         0x000000000007970c        0x4 
 .bss           0x0000000000079710      0x3a0 build/p_switch.o
                0x0000000000079710                numswitches
                0x0000000000079720                switchlist
                0x00000000000798b0                buttonlist
 .bss           0x0000000000079ab0       0x1c build/p_tick.o
                0x0000000000079ab0                thinkercap
                0x0000000000079ac8                leveltime
 .bss           0x0000000000079acc        0x4 build/p_user.o
                0x0000000000079acc                onground
 .bss           0x0000000000079ad0     0x4140 build/r_bsp.o
                0x0000000000079ad0                drawsegs
                0x000000000007dad0                ds_p
                0x000000000007dae0                solidsegs
                0x000000000007dbe0                newend
                0x000000000007dbe8                curline
                0x000000000007dbf0                backsector
                0x000000000007dbf8                frontsector
                0x000000000007dc00                sidedef
                0x000000000007dc08                linedef
 .bss           0x000000000007dc10       0xb0 build/r_data.o
                0x000000000007dc10                textures
                0x000000000007dc18                texturecompositesize
                0x000000000007dc20                texturecomposite
                0x000000000007dc28                texturecolumnlump
                0x000000000007dc30                texturecolumnofs
                0x000000000007dc38                texturewidthmask
                0x000000000007dc40                numtextures
                0x000000000007dc48                textureheight
                0x000000000007dc50                texturetranslation
                0x000000000007dc58                firstflat
                0x000000000007dc5c                lastflat
                0x000000000007dc60                numflats
                0x000000000007dc68                flattranslation
                0x000000000007dc70                firstspritelump
                0x000000000007dc74                lastspritelump
                0x000000000007dc78                numspritelumps
                0x000000000007dc80                spritewidth
                0x000000000007dc88                spriteoffset
                0x000000000007dc90                spritetopoffset
                0x000000000007dc98                colormaps
                0x000000000007dca0                textures_hashtable
                0x000000000007dca8                flatmemory
                0x000000000007dcac                texturememory
                0x000000000007dcb0                spritememory
                0x000000000007dcb4                firstpatch
                0x000000000007dcb8                lastpatch
                0x000000000007dcbc                numpatches
 .bss           0x000000000007dcc0     0x2f28 build/r_draw.o
                0x000000000007dcc0                dc_yh
                0x000000000007dcc4                dc_yl
                0x000000000007dcc8                dc_x
                0x000000000007dcd0                ylookup
                0x000000000007f6d0                columnofs
                0x0000000000080850                dc_iscale
                0x0000000000080854                dc_texturemid
                0x0000000000080858                dc_colormap
                0x0000000000080860                dc_source
                0x0000000000080868                fuzzpos
                0x000000000008086c                viewheight
                0x0000000000080870                dc_translation
                0x0000000000080878                translationtables
                0x0000000000080880                ds_x2
                0x0000000000080884                ds_x1
                0x0000000000080888                ds_y
                0x000000000008088c                ds_xfrac
                0x0000000000080890                ds_yfrac
                0x0000000000080894                ds_xstep
                0x0000000000080898                ds_ystep
                0x00000000000808a0                ds_colormap
                0x00000000000808a8                ds_source
                0x00000000000808b0                viewwindowx
                0x00000000000808b4                viewwindowy
                0x00000000000808b8                scaledviewwidth
                0x00000000000808c8                viewimage
                0x00000000000808d0                viewwidth
                0x00000000000808e0                translations
                0x0000000000080be0                dccount
                0x0000000000080be4                dscount
 *fill*         0x0000000000080be8        0x8 
 .bss           0x0000000000080bf0     0x9f28 build/r_main.o
                0x0000000000080bf0                viewx
                0x0000000000080bf4                viewy
                0x0000000000080bf8                viewangle
                0x0000000000080bfc                projection
                0x0000000000080c00                detailshift
                0x0000000000080c04                centerxfrac
                0x0000000000080c10                viewangletox
                0x0000000000084c10                xtoviewangle
                0x0000000000085114                centerx
                0x0000000000085118                clipangle
                0x0000000000085120                zlight
                0x0000000000089120                setsizeneeded
                0x0000000000089124                setblocks
                0x0000000000089128                setdetail
                0x000000000008912c                centery
                0x0000000000089130                centeryfrac
                0x0000000000089138                basecolfunc
                0x0000000000089140                colfunc
                0x0000000000089148                fuzzcolfunc
                0x0000000000089150                transcolfunc
                0x0000000000089158                spanfunc
                0x0000000000089160                scalelight
                0x000000000008a960                framecount
                0x000000000008a968                viewplayer
                0x000000000008a970                viewangleoffset
                0x000000000008a974                extralight
                0x000000000008a978                viewz
                0x000000000008a97c                viewsin
                0x000000000008a980                viewcos
                0x000000000008a984                sscount
                0x000000000008a988                fixedcolormap
                0x000000000008a990                scalelightfixed
                0x000000000008ab10                linecount
                0x000000000008ab14                loopcount
 *fill*         0x000000000008ab18        0x8 
 .bss           0x000000000008ab20    0x20c60 build/r_plane.o
                0x000000000008ab20                planeheight
                0x000000000008ab30                cachedheight
                0x000000000008ae50                yslope
                0x000000000008b170                cacheddistance
                0x000000000008b490                basexscale
                0x000000000008b4a0                cachedxstep
                0x000000000008b7c0                baseyscale
                0x000000000008b7d0                cachedystep
                0x000000000008baf0                distscale
                0x000000000008bff0                planezlight
                0x000000000008c000                floorclip
                0x000000000008c280                ceilingclip
                0x000000000008c500                visplanes
                0x00000000000a1100                lastvisplane
                0x00000000000a1110                openings
                0x00000000000ab110                lastopening
                0x00000000000ab120                spanstart
                0x00000000000ab440                floorfunc
                0x00000000000ab448                ceilingfunc
                0x00000000000ab450                floorplane
                0x00000000000ab458                ceilingplane
                0x00000000000ab460                spanstop
 .bss           0x00000000000ab780       0x8c build/r_segs.o
                0x00000000000ab780                walllights
                0x00000000000ab788                maskedtexturecol
                0x00000000000ab790                rw_scalestep
                0x00000000000ab794                rw_x
                0x00000000000ab798                rw_stopx
                0x00000000000ab79c                topfrac
                0x00000000000ab7a0                markceiling
                0x00000000000ab7a4                bottomfrac
                0x00000000000ab7a8                markfloor
                0x00000000000ab7ac                segtextured
                0x00000000000ab7b0                rw_centerangle
                0x00000000000ab7b4                rw_offset
                0x00000000000ab7b8                rw_distance
                0x00000000000ab7bc                rw_scale
                0x00000000000ab7c0                midtexture
                0x00000000000ab7c4                rw_midtexturemid
                0x00000000000ab7c8                toptexture
                0x00000000000ab7cc                pixhigh
                0x00000000000ab7d0                pixhighstep
                0x00000000000ab7d4                rw_toptexturemid
                0x00000000000ab7d8                bottomtexture
                0x00000000000ab7dc                pixlow
                0x00000000000ab7e0                pixlowstep
                0x00000000000ab7e4                rw_bottomtexturemid
                0x00000000000ab7e8                maskedtexture
                0x00000000000ab7ec                topstep
                0x00000000000ab7f0                bottomstep
                0x00000000000ab7f4                rw_normalangle
                0x00000000000ab7f8                rw_angle1
                0x00000000000ab7fc                worldtop
                0x00000000000ab800                worldbottom
                0x00000000000ab804                worldhigh
                0x00000000000ab808                worldlow
 .bss           0x00000000000ab80c        0xc build/r_sky.o
                0x00000000000ab80c                skytexturemid
                0x00000000000ab810                skyflatnum
                0x00000000000ab814                skytexture
 *fill*         0x00000000000ab818        0x8 
 .bss           0x00000000000ab820     0x3634 build/r_things.o
                0x00000000000ab820                maxframe
                0x00000000000ab830                sprtemp
                0x00000000000abb60                spritename
                0x00000000000abb68                numsprites
                0x00000000000abb70                sprites
                0x00000000000abb80                negonearray
                0x00000000000abe00                vissprites
                0x00000000000ae600                vissprite_p
                0x00000000000ae608                overflowsprite
                0x00000000000ae658                sprtopscreen
                0x00000000000ae65c                spryscale
                0x00000000000ae660                mfloorclip
                0x00000000000ae668                mceilingclip
                0x00000000000ae670                spritelights
                0x00000000000ae678                pspritescale
                0x00000000000ae67c                pspriteiscale
                0x00000000000ae680                screenheightarray
                0x00000000000ae900                vsprsortedhead
                0x00000000000aee50                newvissprite
 .bss           0x00000000000aee54        0x4 build/statdump.o
 .bss           0x00000000000aee58        0x8 build/st_lib.o
                0x00000000000aee58                sttminus
 .bss           0x00000000000aee60      0x7d1 build/st_stuff.o
                0x00000000000aee68                st_backing_screen
 *fill*         0x00000000000af631        0x7 
 .bss           0x00000000000af638       0x18 build/s_sound.o
 .bss           0x00000000000af650       0x38 build/v_video.o
                0x00000000000af650                tinttable
                0x00000000000af658                xlatab
                0x00000000000af670                dirtybox
 *fill*         0x00000000000af688        0x8 
 .bss           0x00000000000af690      0x260 build/wi_stuff.o
 .bss           0x00000000000af8f0       0x10 build/w_checksum.o
 .bss           0x00000000000af900       0x18 build/w_wad.o
                0x00000000000af900                numlumps
                0x00000000000af908                lumpinfo
 .bss           0x00000000000af918        0x8 build/z_zone.o
                0x00000000000af918                mainzone
 .bss           0x00000000000af920        0x4 build/i_input.o
 *fill*         0x00000000000af924        0xc 
 .bss           0x00000000000af930      0x44c build/i_video.o
                0x00000000000af930                usemouse
                0x00000000000af938                I_VideoBuffer
                0x00000000000af940                screensaver_mode
                0x00000000000af944                usegamma
                0x00000000000afd78                screenvisible
 *fill*         0x00000000000afd7c        0x4 
 .bss           0x00000000000afd80        0x8 build/doomgeneric.o
                0x00000000000afd80                DG_ScreenBuffer
 .bss           0x00000000000afd88        0xc build/doomgeneric_opssat.o
 *(COMMON)
                0x00000000000afd98                . = ALIGN ((. != 0x0)?0x8:0x1)
 *fill*         0x00000000000afd94        0x4 

.lbss
 *(.dynlbss)
 *(.lbss .lbss.* .gnu.linkonce.lb.*)
 *(LARGE_COMMON)
                0x00000000000afd98                . = ALIGN (0x8)
                0x00000000000afd98                . = SEGMENT_START ("ldata-segment", .)

.lrodata
 *(.lrodata .lrodata.* .gnu.linkonce.lr.*)

.ldata          0x00000000000b1d98        0x0
 *(.ldata .ldata.* .gnu.linkonce.l.*)
                0x00000000000b1d98                . = ALIGN ((. != 0x0)?0x8:0x1)
                0x00000000000b1d98                . = ALIGN (0x8)
                0x00000000000afd98                _end = .
                [!provide]                        PROVIDE (end = .)
                0x00000000000b1d98                . = DATA_SEGMENT_END (.)

.stab
 *(.stab)

.stabstr
 *(.stabstr)

.stab.excl
 *(.stab.excl)

.stab.exclstr
 *(.stab.exclstr)

.stab.index
 *(.stab.index)

.stab.indexstr
 *(.stab.indexstr)

.comment        0x0000000000000000       0x52
 *(.comment)
 .comment       0x0000000000000000       0x2b /usr/bin/../lib/gcc/x86_64-linux-gnu/11/crtbeginS.o
                                         0x2c (size before relaxing)
 .comment       0x000000000000002b       0x27 build/dummy.o
                                         0x28 (size before relaxing)
 .comment       0x0000000000000052       0x28 build/am_map.o
 .comment       0x0000000000000052       0x28 build/doomstat.o
 .comment       0x0000000000000052       0x28 build/dstrings.o
 .comment       0x0000000000000052       0x28 build/d_event.o
 .comment       0x0000000000000052       0x28 build/d_items.o
 .comment       0x0000000000000052       0x28 build/d_iwad.o
 .comment       0x0000000000000052       0x28 build/d_loop.o
 .comment       0x0000000000000052       0x28 build/d_main.o
 .comment       0x0000000000000052       0x28 build/d_mode.o
 .comment       0x0000000000000052       0x28 build/d_net.o
 .comment       0x0000000000000052       0x28 build/f_finale.o
 .comment       0x0000000000000052       0x28 build/f_wipe.o
 .comment       0x0000000000000052       0x28 build/g_game.o
 .comment       0x0000000000000052       0x28 build/hu_lib.o
 .comment       0x0000000000000052       0x28 build/hu_stuff.o
 .comment       0x0000000000000052       0x28 build/info.o
 .comment       0x0000000000000052       0x28 build/i_cdmus.o
 .comment       0x0000000000000052       0x28 build/i_endoom.o
 .comment       0x0000000000000052       0x28 build/i_joystick.o
 .comment       0x0000000000000052       0x28 build/i_scale.o
 .comment       0x0000000000000052       0x28 build/i_sound.o
 .comment       0x0000000000000052       0x28 build/i_system.o
 .comment       0x0000000000000052       0x28 build/i_timer.o
 .comment       0x0000000000000052       0x28 build/memio.o
 .comment       0x0000000000000052       0x28 build/m_argv.o
 .comment       0x0000000000000052       0x28 build/m_bbox.o
 .comment       0x0000000000000052       0x28 build/m_cheat.o
 .comment       0x0000000000000052       0x28 build/m_config.o
 .comment       0x0000000000000052       0x28 build/m_controls.o
 .comment       0x0000000000000052       0x28 build/m_fixed.o
 .comment       0x0000000000000052       0x28 build/m_menu.o
 .comment       0x0000000000000052       0x28 build/m_misc.o
 .comment       0x0000000000000052       0x28 build/m_random.o
 .comment       0x0000000000000052       0x28 build/p_ceilng.o
 .comment       0x0000000000000052       0x28 build/p_doors.o
 .comment       0x0000000000000052       0x28 build/p_enemy.o
 .comment       0x0000000000000052       0x28 build/p_floor.o
 .comment       0x0000000000000052       0x28 build/p_inter.o
 .comment       0x0000000000000052       0x28 build/p_lights.o
 .comment       0x0000000000000052       0x28 build/p_map.o
 .comment       0x0000000000000052       0x28 build/p_maputl.o
 .comment       0x0000000000000052       0x28 build/p_mobj.o
 .comment       0x0000000000000052       0x28 build/p_plats.o
 .comment       0x0000000000000052       0x28 build/p_pspr.o
 .comment       0x0000000000000052       0x28 build/p_saveg.o
 .comment       0x0000000000000052       0x28 build/p_setup.o
 .comment       0x0000000000000052       0x28 build/p_sight.o
 .comment       0x0000000000000052       0x28 build/p_spec.o
 .comment       0x0000000000000052       0x28 build/p_switch.o
 .comment       0x0000000000000052       0x28 build/p_telept.o
 .comment       0x0000000000000052       0x28 build/p_tick.o
 .comment       0x0000000000000052       0x28 build/p_user.o
 .comment       0x0000000000000052       0x28 build/r_bsp.o
 .comment       0x0000000000000052       0x28 build/r_data.o
 .comment       0x0000000000000052       0x28 build/r_draw.o
 .comment       0x0000000000000052       0x28 build/r_main.o
 .comment       0x0000000000000052       0x28 build/r_plane.o
 .comment       0x0000000000000052       0x28 build/r_segs.o
 .comment       0x0000000000000052       0x28 build/r_sky.o
 .comment       0x0000000000000052       0x28 build/r_things.o
 .comment       0x0000000000000052       0x28 build/sha1.o
 .comment       0x0000000000000052       0x28 build/sounds.o
 .comment       0x0000000000000052       0x28 build/statdump.o
 .comment       0x0000000000000052       0x28 build/st_lib.o
 .comment       0x0000000000000052       0x28 build/st_stuff.o
 .comment       0x0000000000000052       0x28 build/s_sound.o
 .comment       0x0000000000000052       0x28 build/tables.o
 .comment       0x0000000000000052       0x28 build/v_video.o
 .comment       0x0000000000000052       0x28 build/wi_stuff.o
 .comment       0x0000000000000052       0x28 build/w_checksum.o
 .comment       0x0000000000000052       0x28 build/w_file.o
 .comment       0x0000000000000052       0x28 build/w_main.o
 .comment       0x0000000000000052       0x28 build/w_wad.o
 .comment       0x0000000000000052       0x28 build/z_zone.o
 .comment       0x0000000000000052       0x28 build/w_file_stdc.o
 .comment       0x0000000000000052       0x28 build/i_input.o
 .comment       0x0000000000000052       0x28 build/i_video.o
 .comment       0x0000000000000052       0x28 build/doomgeneric.o
 .comment       0x0000000000000052       0x28 build/doomgeneric_opssat.o
 .comment       0x0000000000000052       0x2c /usr/bin/../lib/gcc/x86_64-linux-gnu/11/crtendS.o

.gnu.build.attributes
 *(.gnu.build.attributes .gnu.build.attributes.*)

.debug
 *(.debug)

.line
 *(.line)

.debug_srcinfo
 *(.debug_srcinfo)

.debug_sfnames
 *(.debug_sfnames)

.debug_aranges
 *(.debug_aranges)

.debug_pubnames
 *(.debug_pubnames)

.debug_info     0x0000000000000000    0x6b5a3
 *(.debug_info .gnu.linkonce.wi.*)
 .debug_info    0x0000000000000000       0x67 build/dummy.o
 .debug_info    0x0000000000000067     0x2f35 build/am_map.o
 .debug_info    0x0000000000002f9c      0x10b build/doomstat.o
 .debug_info    0x00000000000030a7       0x4e build/dstrings.o
 .debug_info    0x00000000000030f5       0xef build/d_event.o
 .debug_info    0x00000000000031e4       0xa8 build/d_items.o
 .debug_info    0x000000000000328c      0x555 build/d_iwad.o
 .debug_info    0x00000000000037e1      0x785 build/d_loop.o
 .debug_info    0x0000000000003f66     0x3319 build/d_main.o
 .debug_info    0x000000000000727f      0x268 build/d_mode.o
 .debug_info    0x00000000000074e7     0x21a5 build/d_net.o
 .debug_info    0x000000000000968c     0x234f build/f_finale.o
 .debug_info    0x000000000000b9db      0x536 build/f_wipe.o
 .debug_info    0x000000000000bf11     0x3ad2 build/g_game.o
 .debug_info    0x000000000000f9e3      0x743 build/hu_lib.o
 .debug_info    0x0000000000010126     0x297f build/hu_stuff.o
 .debug_info    0x0000000000012aa5     0x1620 build/info.o
 .debug_info    0x00000000000140c5       0xd7 build/i_cdmus.o
 .debug_info    0x000000000001419c       0x5b build/i_endoom.o
 .debug_info    0x00000000000141f7      0x1a1 build/i_joystick.o
 .debug_info    0x0000000000014398     0x18b9 build/i_scale.o
 .debug_info    0x0000000000015c51      0x5bb build/i_sound.o
 .debug_info    0x000000000001620c      0x797 build/i_system.o
 .debug_info    0x00000000000169a3      0x115 build/i_timer.o
 .debug_info    0x0000000000016ab8      0x2e4 build/memio.o
 .debug_info    0x0000000000016d9c      0x144 build/m_argv.o
 .debug_info    0x0000000000016ee0       0x91 build/m_bbox.o
 .debug_info    0x0000000000016f71       0xff build/m_cheat.o
 .debug_info    0x0000000000017070      0x522 build/m_config.o
 .debug_info    0x0000000000017592      0x940 build/m_controls.o
 .debug_info    0x0000000000017ed2       0x9e build/m_fixed.o
 .debug_info    0x0000000000017f70     0x1c88 build/m_menu.o
 .debug_info    0x0000000000019bf8      0x8c6 build/m_misc.o
 .debug_info    0x000000000001a4be       0x8c build/m_random.o
 .debug_info    0x000000000001a54a     0x248c build/p_ceilng.o
 .debug_info    0x000000000001c9d6     0x2653 build/p_doors.o
 .debug_info    0x000000000001f029     0x3e21 build/p_enemy.o
 .debug_info    0x0000000000022e4a     0x271f build/p_floor.o
 .debug_info    0x0000000000025569     0x2a8e build/p_inter.o
 .debug_info    0x0000000000027ff7     0x2426 build/p_lights.o
 .debug_info    0x000000000002a41d     0x31e9 build/p_map.o
 .debug_info    0x000000000002d606     0x28bf build/p_maputl.o
 .debug_info    0x000000000002fec5     0x2c64 build/p_mobj.o
 .debug_info    0x0000000000032b29     0x2531 build/p_plats.o
 .debug_info    0x000000000003505a     0x2df2 build/p_pspr.o
 .debug_info    0x0000000000037e4c     0x429c build/p_saveg.o
 .debug_info    0x000000000003c0e8     0x2e63 build/p_setup.o
 .debug_info    0x000000000003ef4b     0x23ef build/p_sight.o
 .debug_info    0x000000000004133a     0x2eda build/p_spec.o
 .debug_info    0x0000000000044214     0x25d9 build/p_switch.o
 .debug_info    0x00000000000467ed     0x2335 build/p_telept.o
 .debug_info    0x0000000000048b22     0x204e build/p_tick.o
 .debug_info    0x000000000004ab70     0x228e build/p_user.o
 .debug_info    0x000000000004cdfe     0x25c8 build/r_bsp.o
 .debug_info    0x000000000004f3c6     0x2c56 build/r_data.o
 .debug_info    0x000000000005201c      0x861 build/r_draw.o
 .debug_info    0x000000000005287d     0x28b1 build/r_main.o
 .debug_info    0x000000000005512e      0x56f build/r_plane.o
 .debug_info    0x000000000005569d     0x2578 build/r_segs.o
 .debug_info    0x0000000000057c15       0x54 build/r_sky.o
 .debug_info    0x0000000000057c69     0x2baf build/r_things.o
 .debug_info    0x000000000005a818      0x388 build/sha1.o
 .debug_info    0x000000000005aba0      0x109 build/sounds.o
 .debug_info    0x000000000005aca9      0x18a build/statdump.o
 .debug_info    0x000000000005ae33      0x63a build/st_lib.o
 .debug_info    0x000000000005b46d     0x3704 build/st_stuff.o
 .debug_info    0x000000000005eb71     0x2ab4 build/s_sound.o
 .debug_info    0x0000000000061625      0x119 build/tables.o
 .debug_info    0x000000000006173e     0x1024 build/v_video.o
 .debug_info    0x0000000000062762     0x3d34 build/wi_stuff.o
 .debug_info    0x0000000000066496      0x392 build/w_checksum.o
 .debug_info    0x0000000000066828      0x1d8 build/w_file.o
 .debug_info    0x0000000000066a00      0x19b build/w_main.o
 .debug_info    0x0000000000066b9b      0x8ad build/w_wad.o
 .debug_info    0x0000000000067448      0x534 build/z_zone.o
 .debug_info    0x000000000006797c      0x3f2 build/w_file_stdc.o
 .debug_info    0x0000000000067d6e      0x1d6 build/i_input.o
 .debug_info    0x0000000000067f44      0x625 build/i_video.o
 .debug_info    0x0000000000068569       0x9a build/doomgeneric.o
 .debug_info    0x0000000000068603     0x2fa0 build/doomgeneric_opssat.o

.debug_abbrev   0x0000000000000000     0xa7a0
 *(.debug_abbrev)
 .debug_abbrev  0x0000000000000000       0x6e build/dummy.o
 .debug_abbrev  0x000000000000006e      0x380 build/am_map.o
 .debug_abbrev  0x00000000000003ee       0x5a build/doomstat.o
 .debug_abbrev  0x0000000000000448       0x52 build/dstrings.o
 .debug_abbrev  0x000000000000049a       0xe2 build/d_event.o
 .debug_abbrev  0x000000000000057c       0x88 build/d_items.o
 .debug_abbrev  0x0000000000000604      0x1fc build/d_iwad.o
 .debug_abbrev  0x0000000000000800      0x2e7 build/d_loop.o
 .debug_abbrev  0x0000000000000ae7      0x3c3 build/d_main.o
 .debug_abbrev  0x0000000000000eaa       0xec build/d_mode.o
 .debug_abbrev  0x0000000000000f96      0x29e build/d_net.o
 .debug_abbrev  0x0000000000001234      0x2dc build/f_finale.o
 .debug_abbrev  0x0000000000001510      0x1b5 build/f_wipe.o
 .debug_abbrev  0x00000000000016c5      0x482 build/g_game.o
 .debug_abbrev  0x0000000000001b47      0x256 build/hu_lib.o
 .debug_abbrev  0x0000000000001d9d      0x328 build/hu_stuff.o
 .debug_abbrev  0x00000000000020c5      0x105 build/info.o
 .debug_abbrev  0x00000000000021ca       0x8c build/i_cdmus.o
 .debug_abbrev  0x0000000000002256       0x5d build/i_endoom.o
 .debug_abbrev  0x00000000000022b3      0x127 build/i_joystick.o
 .debug_abbrev  0x00000000000023da      0x2ac build/i_scale.o
 .debug_abbrev  0x0000000000002686      0x206 build/i_sound.o
 .debug_abbrev  0x000000000000288c      0x30d build/i_system.o
 .debug_abbrev  0x0000000000002b99      0x130 build/i_timer.o
 .debug_abbrev  0x0000000000002cc9      0x12f build/memio.o
 .debug_abbrev  0x0000000000002df8      0x12a build/m_argv.o
 .debug_abbrev  0x0000000000002f22       0x85 build/m_bbox.o
 .debug_abbrev  0x0000000000002fa7       0xc4 build/m_cheat.o
 .debug_abbrev  0x000000000000306b      0x202 build/m_config.o
 .debug_abbrev  0x000000000000326d      0x13c build/m_controls.o
 .debug_abbrev  0x00000000000033a9       0x80 build/m_fixed.o
 .debug_abbrev  0x0000000000003429      0x37c build/m_menu.o
 .debug_abbrev  0x00000000000037a5      0x255 build/m_misc.o
 .debug_abbrev  0x00000000000039fa       0x95 build/m_random.o
 .debug_abbrev  0x0000000000003a8f      0x2eb build/p_ceilng.o
 .debug_abbrev  0x0000000000003d7a      0x234 build/p_doors.o
 .debug_abbrev  0x0000000000003fae      0x3c7 build/p_enemy.o
 .debug_abbrev  0x0000000000004375      0x207 build/p_floor.o
 .debug_abbrev  0x000000000000457c      0x2d1 build/p_inter.o
 .debug_abbrev  0x000000000000484d      0x1f8 build/p_lights.o
 .debug_abbrev  0x0000000000004a45      0x30f build/p_map.o
 .debug_abbrev  0x0000000000004d54      0x333 build/p_maputl.o
 .debug_abbrev  0x0000000000005087      0x2f4 build/p_mobj.o
 .debug_abbrev  0x000000000000537b      0x31a build/p_plats.o
 .debug_abbrev  0x0000000000005695      0x2bc build/p_pspr.o
 .debug_abbrev  0x0000000000005951      0x3f6 build/p_saveg.o
 .debug_abbrev  0x0000000000005d47      0x31e build/p_setup.o
 .debug_abbrev  0x0000000000006065      0x268 build/p_sight.o
 .debug_abbrev  0x00000000000062cd      0x408 build/p_spec.o
 .debug_abbrev  0x00000000000066d5      0x28e build/p_switch.o
 .debug_abbrev  0x0000000000006963      0x198 build/p_telept.o
 .debug_abbrev  0x0000000000006afb      0x1eb build/p_tick.o
 .debug_abbrev  0x0000000000006ce6      0x1bd build/p_user.o
 .debug_abbrev  0x0000000000006ea3      0x2e2 build/r_bsp.o
 .debug_abbrev  0x0000000000007185      0x320 build/r_data.o
 .debug_abbrev  0x00000000000074a5      0x22d build/r_draw.o
 .debug_abbrev  0x00000000000076d2      0x390 build/r_main.o
 .debug_abbrev  0x0000000000007a62      0x1ec build/r_plane.o
 .debug_abbrev  0x0000000000007c4e      0x264 build/r_segs.o
 .debug_abbrev  0x0000000000007eb2       0x4b build/r_sky.o
 .debug_abbrev  0x0000000000007efd      0x318 build/r_things.o
 .debug_abbrev  0x0000000000008215      0x1a1 build/sha1.o
 .debug_abbrev  0x00000000000083b6       0x8b build/sounds.o
 .debug_abbrev  0x0000000000008441      0x101 build/statdump.o
 .debug_abbrev  0x0000000000008542      0x1d0 build/st_lib.o
 .debug_abbrev  0x0000000000008712      0x349 build/st_stuff.o
 .debug_abbrev  0x0000000000008a5b      0x3b7 build/s_sound.o
 .debug_abbrev  0x0000000000008e12       0xbe build/tables.o
 .debug_abbrev  0x0000000000008ed0      0x27e build/v_video.o
 .debug_abbrev  0x000000000000914e      0x359 build/wi_stuff.o
 .debug_abbrev  0x00000000000094a7      0x1af build/w_checksum.o
 .debug_abbrev  0x0000000000009656      0x133 build/w_file.o
 .debug_abbrev  0x0000000000009789       0xf2 build/w_main.o
 .debug_abbrev  0x000000000000987b      0x2e5 build/w_wad.o
 .debug_abbrev  0x0000000000009b60      0x1d8 build/z_zone.o
 .debug_abbrev  0x0000000000009d38      0x1a2 build/w_file_stdc.o
 .debug_abbrev  0x0000000000009eda      0x1bb build/i_input.o
 .debug_abbrev  0x000000000000a095      0x25b build/i_video.o
 .debug_abbrev  0x000000000000a2f0       0xa7 build/doomgeneric.o
 .debug_abbrev  0x000000000000a397      0x409 build/doomgeneric_opssat.o

.debug_line     0x0000000000000000    0x21a42
 *(.debug_line .debug_line.* .debug_line_end)
 .debug_line    0x0000000000000000       0x75 build/dummy.o
 .debug_line    0x0000000000000075     0x11da build/am_map.o
 .debug_line    0x000000000000124f       0x71 build/doomstat.o
 .debug_line    0x00000000000012c0       0x43 build/dstrings.o
 .debug_line    0x0000000000001303       0xb7 build/d_event.o
 .debug_line    0x00000000000013ba       0x71 build/d_items.o
 .debug_line    0x000000000000142b      0x3a6 build/d_iwad.o
 .debug_line    0x00000000000017d1      0x4ed build/d_loop.o
 .debug_line    0x0000000000001cbe      0xf01 build/d_main.o
 .debug_line    0x0000000000002bbf      0x18d build/d_mode.o
 .debug_line    0x0000000000002d4c      0x491 build/d_net.o
 .debug_line    0x00000000000031dd      0x73f build/f_finale.o
 .debug_line    0x000000000000391c      0x3d5 build/f_wipe.o
 .debug_line    0x0000000000003cf1     0x1988 build/g_game.o
 .debug_line    0x0000000000005679      0x573 build/hu_lib.o
 .debug_line    0x0000000000005bec      0x706 build/hu_stuff.o
 .debug_line    0x00000000000062f2       0x71 build/info.o
 .debug_line    0x0000000000006363       0xa7 build/i_cdmus.o
 .debug_line    0x000000000000640a       0xa5 build/i_endoom.o
 .debug_line    0x00000000000064af       0xf0 build/i_joystick.o
 .debug_line    0x000000000000659f     0x1886 build/i_scale.o
 .debug_line    0x0000000000007e25      0x166 build/i_sound.o
 .debug_line    0x0000000000007f8b      0x37f build/i_system.o
 .debug_line    0x000000000000830a       0xfa build/i_timer.o
 .debug_line    0x0000000000008404      0x1f3 build/memio.o
 .debug_line    0x00000000000085f7       0xdf build/m_argv.o
 .debug_line    0x00000000000086d6       0xca build/m_bbox.o
 .debug_line    0x00000000000087a0      0x11d build/m_cheat.o
 .debug_line    0x00000000000088bd      0x335 build/m_config.o
 .debug_line    0x0000000000008bf2      0x1ec build/m_controls.o
 .debug_line    0x0000000000008dde       0xe8 build/m_fixed.o
 .debug_line    0x0000000000008ec6     0x1555 build/m_menu.o
 .debug_line    0x000000000000a41b      0x4ad build/m_misc.o
 .debug_line    0x000000000000a8c8       0x98 build/m_random.o
 .debug_line    0x000000000000a960      0x43e build/p_ceilng.o
 .debug_line    0x000000000000ad9e      0x5ab build/p_doors.o
 .debug_line    0x000000000000b349     0x174b build/p_enemy.o
 .debug_line    0x000000000000ca94      0x673 build/p_floor.o
 .debug_line    0x000000000000d107      0xb1e build/p_inter.o
 .debug_line    0x000000000000dc25      0x531 build/p_lights.o
 .debug_line    0x000000000000e156     0x10f6 build/p_map.o
 .debug_line    0x000000000000f24c      0xa25 build/p_maputl.o
 .debug_line    0x000000000000fc71      0xd7d build/p_mobj.o
 .debug_line    0x00000000000109ee      0x519 build/p_plats.o
 .debug_line    0x0000000000010f07      0xa7c build/p_pspr.o
 .debug_line    0x0000000000011983     0x16a4 build/p_saveg.o
 .debug_line    0x0000000000013027      0xbaf build/p_setup.o
 .debug_line    0x0000000000013bd6      0x509 build/p_sight.o
 .debug_line    0x00000000000140df      0xe5b build/p_spec.o
 .debug_line    0x0000000000014f3a      0x500 build/p_switch.o
 .debug_line    0x000000000001543a      0x2d7 build/p_telept.o
 .debug_line    0x0000000000015711      0x2a1 build/p_tick.o
 .debug_line    0x00000000000159b2      0x598 build/p_user.o
 .debug_line    0x0000000000015f4a      0x66c build/r_bsp.o
 .debug_line    0x00000000000165b6      0xbda build/r_data.o
 .debug_line    0x0000000000017190      0x8b0 build/r_draw.o
 .debug_line    0x0000000000017a40      0x921 build/r_main.o
 .debug_line    0x0000000000018361      0x5d5 build/r_plane.o
 .debug_line    0x0000000000018936      0xb63 build/r_segs.o
 .debug_line    0x0000000000019499       0x5f build/r_sky.o
 .debug_line    0x00000000000194f8      0xd59 build/r_things.o
 .debug_line    0x000000000001a251      0x721 build/sha1.o
 .debug_line    0x000000000001a972       0x5c build/sounds.o
 .debug_line    0x000000000001a9ce       0xbc build/statdump.o
 .debug_line    0x000000000001aa8a      0x3c3 build/st_lib.o
 .debug_line    0x000000000001ae4d      0xf88 build/st_stuff.o
 .debug_line    0x000000000001bdd5      0x76d build/s_sound.o
 .debug_line    0x000000000001c542       0xe5 build/tables.o
 .debug_line    0x000000000001c627      0xb54 build/v_video.o
 .debug_line    0x000000000001d17b     0x15bd build/wi_stuff.o
 .debug_line    0x000000000001e738      0x1ab build/w_checksum.o
 .debug_line    0x000000000001e8e3      0x10a build/w_file.o
 .debug_line    0x000000000001e9ed      0x151 build/w_main.o
 .debug_line    0x000000000001eb3e      0x595 build/w_wad.o
 .debug_line    0x000000000001f0d3      0x56a build/z_zone.o
 .debug_line    0x000000000001f63d      0x198 build/w_file_stdc.o
 .debug_line    0x000000000001f7d5      0x14d build/i_input.o
 .debug_line    0x000000000001f922      0x400 build/i_video.o
 .debug_line    0x000000000001fd22       0xb3 build/doomgeneric.o
 .debug_line    0x000000000001fdd5     0x1c6d build/doomgeneric_opssat.o

.debug_frame
 *(.debug_frame)

.debug_str      0x0000000000000000     0xd8a6
 *(.debug_str)
 .debug_str     0x0000000000000000       0xb4 build/dummy.o
 .debug_str     0x00000000000000b4     0x414a build/am_map.o
                                       0x4466 (size before relaxing)
 .debug_str     0x00000000000041fe      0x18e build/doomstat.o
                                        0x225 (size before relaxing)
 .debug_str     0x000000000000438c       0x25 build/dstrings.o
                                         0x94 (size before relaxing)
 .debug_str     0x00000000000043b1       0x43 build/d_event.o
                                        0x120 (size before relaxing)
 .debug_str     0x00000000000043f4       0x91 build/d_items.o
                                        0x111 (size before relaxing)
 .debug_str     0x0000000000004485      0x189 build/d_iwad.o
                                        0x31d (size before relaxing)
 .debug_str     0x000000000000460e      0x3f8 build/d_loop.o
                                        0x5e8 (size before relaxing)
 .debug_str     0x0000000000004a06      0xbec build/d_main.o
                                       0x4cf0 (size before relaxing)
 .debug_str     0x00000000000055f2       0x8d build/d_mode.o
                                        0x2a4 (size before relaxing)
 .debug_str     0x000000000000567f       0xc4 build/d_net.o
                                       0x3f0b (size before relaxing)
 .debug_str     0x0000000000005743      0x72c build/f_finale.o
                                       0x44f9 (size before relaxing)
 .debug_str     0x0000000000005e6f      0x104 build/f_wipe.o
                                        0x28e (size before relaxing)
 .debug_str     0x0000000000005f73      0xb6f build/g_game.o
                                       0x547e (size before relaxing)
 .debug_str     0x0000000000006ae2      0x1fd build/hu_lib.o
                                        0x350 (size before relaxing)
 .debug_str     0x0000000000006cdf      0x15f build/hu_stuff.o
                                       0x4750 (size before relaxing)
 .debug_str     0x0000000000006e3e       0x20 build/info.o
                                       0x329d (size before relaxing)
 .debug_str     0x0000000000006e5e       0xb0 build/i_cdmus.o
                                        0x111 (size before relaxing)
 .debug_str     0x0000000000006f0e       0x17 build/i_endoom.o
                                         0x9b (size before relaxing)
 .debug_str     0x0000000000006f25       0xd6 build/i_joystick.o
                                        0x1a6 (size before relaxing)
 .debug_str     0x0000000000006ffb      0x3fd build/i_scale.o
                                        0x7b0 (size before relaxing)
 .debug_str     0x00000000000073f8      0x36e build/i_sound.o
                                        0x537 (size before relaxing)
 .debug_str     0x0000000000007766      0x22e build/i_system.o
                                        0x5ac (size before relaxing)
 .debug_str     0x0000000000007994       0x4c build/i_timer.o
                                         0xf5 (size before relaxing)
 .debug_str     0x00000000000079e0       0xf8 build/memio.o
                                        0x24a (size before relaxing)
 .debug_str     0x0000000000007ad8       0x47 build/m_argv.o
                                        0x105 (size before relaxing)
 .debug_str     0x0000000000007b1f       0x41 build/m_bbox.o
                                         0xb8 (size before relaxing)
 .debug_str     0x0000000000007b60       0x1b build/m_cheat.o
                                        0x136 (size before relaxing)
 .debug_str     0x0000000000007b7b      0x243 build/m_config.o
                                        0x3db (size before relaxing)
 .debug_str     0x0000000000007dbe      0x62c build/m_controls.o
                                        0x766 (size before relaxing)
 .debug_str     0x00000000000083ea       0x14 build/m_fixed.o
                                         0xa0 (size before relaxing)
 .debug_str     0x00000000000083fe      0x75f build/m_menu.o
                                       0x12fc (size before relaxing)
 .debug_str     0x0000000000008b5d      0x11b build/m_misc.o
                                        0x58d (size before relaxing)
 .debug_str     0x0000000000008c78       0x1e build/m_random.o
                                         0xc3 (size before relaxing)
 .debug_str     0x0000000000008c96      0x19d build/p_ceilng.o
                                       0x4404 (size before relaxing)
 .debug_str     0x0000000000008e33      0x1ef build/p_doors.o
                                       0x4502 (size before relaxing)
 .debug_str     0x0000000000009022      0x6c4 build/p_enemy.o
                                       0x4c58 (size before relaxing)
 .debug_str     0x00000000000096e6      0x15d build/p_floor.o
                                       0x4575 (size before relaxing)
 .debug_str     0x0000000000009843      0x125 build/p_inter.o
                                       0x46f2 (size before relaxing)
 .debug_str     0x0000000000009968      0x15b build/p_lights.o
                                       0x3f72 (size before relaxing)
 .debug_str     0x0000000000009ac3      0x373 build/p_map.o
                                       0x48de (size before relaxing)
 .debug_str     0x0000000000009e36      0x1d8 build/p_maputl.o
                                       0x4217 (size before relaxing)
 .debug_str     0x000000000000a00e      0x12e build/p_mobj.o
                                       0x47b0 (size before relaxing)
 .debug_str     0x000000000000a13c       0x6e build/p_plats.o
                                       0x4434 (size before relaxing)
 .debug_str     0x000000000000a1aa      0x1a8 build/p_pspr.o
                                       0x46ed (size before relaxing)
 .debug_str     0x000000000000a352      0x39f build/p_saveg.o
                                       0x49c8 (size before relaxing)
 .debug_str     0x000000000000a6f1      0x39d build/p_setup.o
                                       0x43a1 (size before relaxing)
 .debug_str     0x000000000000aa8e       0x95 build/p_sight.o
                                       0x3efa (size before relaxing)
 .debug_str     0x000000000000ab23      0x17b build/p_spec.o
                                       0x4a27 (size before relaxing)
 .debug_str     0x000000000000ac9e       0xb0 build/p_switch.o
                                       0x45f2 (size before relaxing)
 .debug_str     0x000000000000ad4e       0x10 build/p_telept.o
                                       0x4448 (size before relaxing)
 .debug_str     0x000000000000ad5e       0x42 build/p_tick.o
                                       0x3dec (size before relaxing)
 .debug_str     0x000000000000ada0       0x4c build/p_user.o
                                       0x406f (size before relaxing)
 .debug_str     0x000000000000adec      0x1e4 build/r_bsp.o
                                       0x4036 (size before relaxing)
 .debug_str     0x000000000000afd0      0x398 build/r_data.o
                                       0x4369 (size before relaxing)
 .debug_str     0x000000000000b368      0x202 build/r_draw.o
                                        0x46f (size before relaxing)
 .debug_str     0x000000000000b56a      0x25d build/r_main.o
                                       0x41d8 (size before relaxing)
 .debug_str     0x000000000000b7c7      0x13e build/r_plane.o
                                        0x38e (size before relaxing)
 .debug_str     0x000000000000b905      0x1c8 build/r_segs.o
                                       0x40cc (size before relaxing)
 .debug_str     0x000000000000bacd       0x2c build/r_sky.o
                                         0x93 (size before relaxing)
 .debug_str     0x000000000000baf9      0x241 build/r_things.o
                                       0x44c4 (size before relaxing)
 .debug_str     0x000000000000bd3a       0x97 build/sha1.o
                                        0x1ad (size before relaxing)
 .debug_str     0x000000000000bdd1       0x23 build/sounds.o
                                        0x10e (size before relaxing)
 .debug_str     0x000000000000bdf4       0x27 build/statdump.o
                                        0x187 (size before relaxing)
 .debug_str     0x000000000000be1b      0x126 build/st_lib.o
                                        0x2dc (size before relaxing)
 .debug_str     0x000000000000bf41      0x419 build/st_stuff.o
                                       0x4ab7 (size before relaxing)
 .debug_str     0x000000000000c35a       0xfe build/s_sound.o
                                       0x49a6 (size before relaxing)
 .debug_str     0x000000000000c458       0x3f build/tables.o
                                        0x104 (size before relaxing)
 .debug_str     0x000000000000c497      0x241 build/v_video.o
                                        0x5b2 (size before relaxing)
 .debug_str     0x000000000000c6d8      0x423 build/wi_stuff.o
                                       0x4c73 (size before relaxing)
 .debug_str     0x000000000000cafb       0x60 build/w_checksum.o
                                        0x280 (size before relaxing)
 .debug_str     0x000000000000cb5b       0x43 build/w_file.o
                                        0x182 (size before relaxing)
 .debug_str     0x000000000000cb9e        0x9 build/w_main.o
                                        0x17d (size before relaxing)
 .debug_str     0x000000000000cba7       0xe0 build/w_wad.o
                                        0x4d4 (size before relaxing)
 .debug_str     0x000000000000cc87       0x9c build/z_zone.o
                                        0x413 (size before relaxing)
 .debug_str     0x000000000000cd23       0x62 build/w_file_stdc.o
                                        0x3dd (size before relaxing)
 .debug_str     0x000000000000cd85       0x80 build/i_input.o
                                        0x18a (size before relaxing)
 .debug_str     0x000000000000ce05      0x17e build/i_video.o
                                        0x4cf (size before relaxing)
 .debug_str     0x000000000000cf83       0x39 build/doomgeneric.o
                                         0xe1 (size before relaxing)
 .debug_str     0x000000000000cfbc      0x8ea build/doomgeneric_opssat.o
                                        0xe05 (size before relaxing)

.debug_loc
 *(.debug_loc)

.debug_macinfo
 *(.debug_macinfo)

.debug_weaknames
 *(.debug_weaknames)

.debug_funcnames
 *(.debug_funcnames)

.debug_typenames
 *(.debug_typenames)

.debug_varnames
 *(.debug_varnames)

.debug_pubtypes
 *(.debug_pubtypes)

.debug_ranges
 *(.debug_ranges)

.debug_addr     0x0000000000000000     0xad28
 *(.debug_addr)
 .debug_addr    0x0000000000000000       0x20 build/dummy.o
 .debug_addr    0x0000000000000020      0x5a8 build/am_map.o
 .debug_addr    0x00000000000005c8       0x30 build/doomstat.o
 .debug_addr    0x00000000000005f8       0x18 build/dstrings.o
 .debug_addr    0x0000000000000610       0x30 build/d_event.o
 .debug_addr    0x0000000000000640       0x10 build/d_items.o
 .debug_addr    0x0000000000000650       0xe8 build/d_iwad.o
 .debug_addr    0x0000000000000738      0x1a8 build/d_loop.o
 .debug_addr    0x00000000000008e0      0x740 build/d_main.o
 .debug_addr    0x0000000000001020       0x50 build/d_mode.o
 .debug_addr    0x0000000000001070       0xd0 build/d_net.o
 .debug_addr    0x0000000000001140      0x208 build/f_finale.o
 .debug_addr    0x0000000000001348      0x120 build/f_wipe.o
 .debug_addr    0x0000000000001468      0x7c8 build/g_game.o
 .debug_addr    0x0000000000001c30      0x170 build/hu_lib.o
 .debug_addr    0x0000000000001da0      0x1e0 build/hu_stuff.o
 .debug_addr    0x0000000000001f80       0x20 build/info.o
 .debug_addr    0x0000000000001fa0       0x58 build/i_cdmus.o
 .debug_addr    0x0000000000001ff8       0x10 build/i_endoom.o
 .debug_addr    0x0000000000002008       0xc8 build/i_joystick.o
 .debug_addr    0x00000000000020d0      0x420 build/i_scale.o
 .debug_addr    0x00000000000024f0      0x160 build/i_sound.o
 .debug_addr    0x0000000000002650      0x168 build/i_system.o
 .debug_addr    0x00000000000027b8       0x68 build/i_timer.o
 .debug_addr    0x0000000000002820       0x88 build/memio.o
 .debug_addr    0x00000000000028a8       0x58 build/m_argv.o
 .debug_addr    0x0000000000002900       0x18 build/m_bbox.o
 .debug_addr    0x0000000000002918       0x18 build/m_cheat.o
 .debug_addr    0x0000000000002930      0x158 build/m_config.o
 .debug_addr    0x0000000000002a88      0x760 build/m_controls.o
 .debug_addr    0x00000000000031e8       0x20 build/m_fixed.o
 .debug_addr    0x0000000000003208      0x8e0 build/m_menu.o
 .debug_addr    0x0000000000003ae8      0x160 build/m_misc.o
 .debug_addr    0x0000000000003c48       0x38 build/m_random.o
 .debug_addr    0x0000000000003c80       0xb0 build/p_ceilng.o
 .debug_addr    0x0000000000003d30      0x108 build/p_doors.o
 .debug_addr    0x0000000000003e38      0x9d0 build/p_enemy.o
 .debug_addr    0x0000000000004808      0x118 build/p_floor.o
 .debug_addr    0x0000000000004920      0x218 build/p_inter.o
 .debug_addr    0x0000000000004b38      0x110 build/p_lights.o
 .debug_addr    0x0000000000004c48      0x4f0 build/p_map.o
 .debug_addr    0x0000000000005138      0x208 build/p_maputl.o
 .debug_addr    0x0000000000005340      0x348 build/p_mobj.o
 .debug_addr    0x0000000000005688       0xe8 build/p_plats.o
 .debug_addr    0x0000000000005770      0x3a8 build/p_pspr.o
 .debug_addr    0x0000000000005b18     0x10d0 build/p_saveg.o
 .debug_addr    0x0000000000006be8      0x3a8 build/p_setup.o
 .debug_addr    0x0000000000006f90       0xf8 build/p_sight.o
 .debug_addr    0x0000000000007088      0x2f0 build/p_spec.o
 .debug_addr    0x0000000000007378      0x118 build/p_switch.o
 .debug_addr    0x0000000000007490       0x38 build/p_telept.o
 .debug_addr    0x00000000000074c8       0x78 build/p_tick.o
 .debug_addr    0x0000000000007540       0xc0 build/p_user.o
 .debug_addr    0x0000000000007600      0x160 build/r_bsp.o
 .debug_addr    0x0000000000007760      0x3a8 build/r_data.o
 .debug_addr    0x0000000000007b08      0x278 build/r_draw.o
 .debug_addr    0x0000000000007d80      0x310 build/r_main.o
 .debug_addr    0x0000000000008090      0x198 build/r_plane.o
 .debug_addr    0x0000000000008228      0x200 build/r_segs.o
 .debug_addr    0x0000000000008428       0x28 build/r_sky.o
 .debug_addr    0x0000000000008450      0x280 build/r_things.o
 .debug_addr    0x00000000000086d0       0xa8 build/sha1.o
 .debug_addr    0x0000000000008778       0x18 build/sounds.o
 .debug_addr    0x0000000000008790       0x28 build/statdump.o
 .debug_addr    0x00000000000087b8       0xe0 build/st_lib.o
 .debug_addr    0x0000000000008898      0x6d8 build/st_stuff.o
 .debug_addr    0x0000000000008f70      0x228 build/s_sound.o
 .debug_addr    0x0000000000009198       0x38 build/tables.o
 .debug_addr    0x00000000000091d0      0x260 build/v_video.o
 .debug_addr    0x0000000000009430      0xa50 build/wi_stuff.o
 .debug_addr    0x0000000000009e80       0x68 build/w_checksum.o
 .debug_addr    0x0000000000009ee8       0x40 build/w_file.o
 .debug_addr    0x0000000000009f28       0x30 build/w_main.o
 .debug_addr    0x0000000000009f58      0x1f8 build/w_wad.o
 .debug_addr    0x000000000000a150       0xd0 build/z_zone.o
 .debug_addr    0x000000000000a220       0x50 build/w_file_stdc.o
 .debug_addr    0x000000000000a270       0x58 build/i_input.o
 .debug_addr    0x000000000000a2c8      0x180 build/i_video.o
 .debug_addr    0x000000000000a448       0x30 build/doomgeneric.o
 .debug_addr    0x000000000000a478      0x8b0 build/doomgeneric_opssat.o

.debug_line_str
                0x0000000000000000      0x719
 *(.debug_line_str)
 .debug_line_str
                0x0000000000000000       0x44 build/dummy.o
 .debug_line_str
                0x0000000000000044      0x12d build/am_map.o
                                        0x169 (size before relaxing)
 .debug_line_str
                0x0000000000000171       0x14 build/doomstat.o
                                         0x50 (size before relaxing)
 .debug_line_str
                0x0000000000000185        0xb build/dstrings.o
                                         0x3a (size before relaxing)
 .debug_line_str
                0x0000000000000190        0xa build/d_event.o
                                         0x45 (size before relaxing)
 .debug_line_str
                0x000000000000019a       0x14 build/d_items.o
                                         0x4f (size before relaxing)
 .debug_line_str
                0x00000000000001ae       0x26 build/d_iwad.o
                                         0xa7 (size before relaxing)
 .debug_line_str
                0x00000000000001d4       0x38 build/d_loop.o
                                         0xd8 (size before relaxing)
 .debug_line_str
                0x000000000000020c       0xf1 build/d_main.o
                                        0x28a (size before relaxing)
 .debug_line_str
                0x00000000000002fd        0x9 build/d_mode.o
                                         0x4e (size before relaxing)
 .debug_line_str
                0x0000000000000306       0x1e build/d_net.o
                                        0x166 (size before relaxing)
 .debug_line_str
                0x0000000000000324        0xb build/f_finale.o
                                        0x123 (size before relaxing)
 .debug_line_str
                0x000000000000032f       0x14 build/f_wipe.o
                                         0xa7 (size before relaxing)
 .debug_line_str
                0x0000000000000343       0x6f build/g_game.o
                                        0x27f (size before relaxing)
 .debug_line_str
                0x00000000000003b2       0x12 build/hu_lib.o
                                         0x6b (size before relaxing)
 .debug_line_str
                0x00000000000003c4        0xb build/hu_stuff.o
                                        0x171 (size before relaxing)
 .debug_line_str
                0x00000000000003cf        0x7 build/info.o
                                         0x49 (size before relaxing)
 .debug_line_str
                0x00000000000003d6        0xa build/i_cdmus.o
                                         0x39 (size before relaxing)
 .debug_line_str
                0x00000000000003e0        0xb build/i_endoom.o
                                         0x81 (size before relaxing)
 .debug_line_str
                0x00000000000003eb        0xd build/i_joystick.o
                                         0x85 (size before relaxing)
 .debug_line_str
                0x00000000000003f8        0xa build/i_scale.o
                                        0x122 (size before relaxing)
 .debug_line_str
                0x0000000000000402        0xa build/i_sound.o
                                         0x64 (size before relaxing)
 .debug_line_str
                0x000000000000040c       0x14 build/i_system.o
                                        0x136 (size before relaxing)
 .debug_line_str
                0x0000000000000420       0x18 build/i_timer.o
                                         0x83 (size before relaxing)
 .debug_line_str
                0x0000000000000438       0x10 build/memio.o
                                         0x7d (size before relaxing)
 .debug_line_str
                0x0000000000000448        0x9 build/m_argv.o
                                         0x45 (size before relaxing)
 .debug_line_str
                0x0000000000000451       0x12 build/m_bbox.o
                                         0x4d (size before relaxing)
 .debug_line_str
                0x0000000000000463        0xa build/m_cheat.o
                                         0x83 (size before relaxing)
 .debug_line_str
                0x000000000000046d        0xb build/m_config.o
                                         0x7a (size before relaxing)
 .debug_line_str
                0x0000000000000478        0xd build/m_controls.o
                                         0x85 (size before relaxing)
 .debug_line_str
                0x0000000000000485       0x18 build/m_fixed.o
                                         0x7e (size before relaxing)
 .debug_line_str
                0x000000000000049d        0x9 build/m_menu.o
                                        0x1a7 (size before relaxing)
 .debug_line_str
                0x00000000000004a6       0x32 build/m_misc.o
                                        0x14b (size before relaxing)
 .debug_line_str
                0x00000000000004d8        0xb build/m_random.o
                                         0x3a (size before relaxing)
 .debug_line_str
                0x00000000000004e3       0x14 build/p_ceilng.o
                                        0x11a (size before relaxing)
 .debug_line_str
                0x00000000000004f7        0xa build/p_doors.o
                                        0x119 (size before relaxing)
 .debug_line_str
                0x0000000000000501        0xa build/p_enemy.o
                                        0x141 (size before relaxing)
 .debug_line_str
                0x000000000000050b        0xa build/p_floor.o
                                        0x119 (size before relaxing)
 .debug_line_str
                0x0000000000000515        0xa build/p_inter.o
                                        0x138 (size before relaxing)
 .debug_line_str
                0x000000000000051f        0xb build/p_lights.o
                                        0x112 (size before relaxing)
 .debug_line_str
                0x000000000000052a        0x8 build/p_map.o
                                        0x148 (size before relaxing)
 .debug_line_str
                0x0000000000000532        0xb build/p_maputl.o
                                        0x107 (size before relaxing)
 .debug_line_str
                0x000000000000053d        0x9 build/p_mobj.o
                                        0x14d (size before relaxing)
 .debug_line_str
                0x0000000000000546        0xa build/p_plats.o
                                        0x12f (size before relaxing)
 .debug_line_str
                0x0000000000000550        0x9 build/p_pspr.o
                                        0x12d (size before relaxing)
 .debug_line_str
                0x0000000000000559       0x13 build/p_saveg.o
                                        0x1b2 (size before relaxing)
 .debug_line_str
                0x000000000000056c       0x15 build/p_setup.o
                                        0x15b (size before relaxing)
 .debug_line_str
                0x0000000000000581        0xa build/p_sight.o
                                         0xff (size before relaxing)
 .debug_line_str
                0x000000000000058b        0x9 build/p_spec.o
                                        0x15a (size before relaxing)
 .debug_line_str
                0x0000000000000594        0xb build/p_switch.o
                                        0x12d (size before relaxing)
 .debug_line_str
                0x000000000000059f        0xb build/p_telept.o
                                        0x111 (size before relaxing)
 .debug_line_str
                0x00000000000005aa        0x9 build/p_tick.o
                                        0x105 (size before relaxing)
 .debug_line_str
                0x00000000000005b3        0x9 build/p_user.o
                                        0x118 (size before relaxing)
 .debug_line_str
                0x00000000000005bc       0x12 build/r_bsp.o
                                        0x11a (size before relaxing)
 .debug_line_str
                0x00000000000005ce        0x9 build/r_data.o
                                        0x14b (size before relaxing)
 .debug_line_str
                0x00000000000005d7        0x9 build/r_draw.o
                                         0xcb (size before relaxing)
 .debug_line_str
                0x00000000000005e0       0x19 build/r_main.o
                                        0x132 (size before relaxing)
 .debug_line_str
                0x00000000000005f9        0xa build/r_plane.o
                                         0xcb (size before relaxing)
 .debug_line_str
                0x0000000000000603        0x9 build/r_segs.o
                                        0x125 (size before relaxing)
 .debug_line_str
                0x000000000000060c        0x8 build/r_sky.o
                                         0x37 (size before relaxing)
 .debug_line_str
                0x0000000000000614       0x14 build/r_things.o
                                        0x123 (size before relaxing)
 .debug_line_str
                0x0000000000000628        0x7 build/sha1.o
                                         0xb7 (size before relaxing)
 .debug_line_str
                0x000000000000062f        0x9 build/sounds.o
                                         0x44 (size before relaxing)
 .debug_line_str
                0x0000000000000638        0xb build/statdump.o
                                         0x5b (size before relaxing)
 .debug_line_str
                0x0000000000000643       0x12 build/st_lib.o
                                         0xb8 (size before relaxing)
 .debug_line_str
                0x0000000000000655       0x15 build/st_stuff.o
                                        0x1c1 (size before relaxing)
 .debug_line_str
                0x000000000000066a        0xa build/s_sound.o
                                        0x167 (size before relaxing)
 .debug_line_str
                0x0000000000000674        0x9 build/tables.o
                                         0x92 (size before relaxing)
 .debug_line_str
                0x000000000000067d        0xa build/v_video.o
                                        0x109 (size before relaxing)
 .debug_line_str
                0x0000000000000687        0xb build/wi_stuff.o
                                        0x191 (size before relaxing)
 .debug_line_str
                0x0000000000000692        0xd build/w_checksum.o
                                         0xd7 (size before relaxing)
 .debug_line_str
                0x000000000000069f        0x9 build/w_file.o
                                         0xc4 (size before relaxing)
 .debug_line_str
                0x00000000000006a8        0x9 build/w_main.o
                                         0xd5 (size before relaxing)
 .debug_line_str
                0x00000000000006b1        0x8 build/w_wad.o
                                         0xfb (size before relaxing)
 .debug_line_str
                0x00000000000006b9        0x9 build/z_zone.o
                                        0x104 (size before relaxing)
 .debug_line_str
                0x00000000000006c2        0xe build/w_file_stdc.o
                                        0x125 (size before relaxing)
 .debug_line_str
                0x00000000000006d0        0xa build/i_input.o
                                         0x53 (size before relaxing)
 .debug_line_str
                0x00000000000006da        0xa build/i_video.o
                                         0xc0 (size before relaxing)
 .debug_line_str
                0x00000000000006e4        0xe build/doomgeneric.o
                                         0x87 (size before relaxing)
 .debug_line_str
                0x00000000000006f2       0x27 build/doomgeneric_opssat.o
                                        0x12f (size before relaxing)

.debug_loclists
                0x0000000000000000    0x16902
 *(.debug_loclists)
 .debug_loclists
                0x0000000000000000      0x80b build/am_map.o
 .debug_loclists
                0x000000000000080b       0x16 build/d_event.o
 .debug_loclists
                0x0000000000000821      0x41c build/d_iwad.o
 .debug_loclists
                0x0000000000000c3d      0x242 build/d_loop.o
 .debug_loclists
                0x0000000000000e7f      0x2b1 build/d_main.o
 .debug_loclists
                0x0000000000001130      0x16a build/d_mode.o
 .debug_loclists
                0x000000000000129a       0x74 build/d_net.o
 .debug_loclists
                0x000000000000130e      0x54e build/f_finale.o
 .debug_loclists
                0x000000000000185c      0x473 build/f_wipe.o
 .debug_loclists
                0x0000000000001ccf      0x97a build/g_game.o
 .debug_loclists
                0x0000000000002649      0x3ca build/hu_lib.o
 .debug_loclists
                0x0000000000002a13      0x240 build/hu_stuff.o
 .debug_loclists
                0x0000000000002c53       0x21 build/i_joystick.o
 .debug_loclists
                0x0000000000002c74     0x1fd7 build/i_scale.o
 .debug_loclists
                0x0000000000004c4b       0x1e build/i_sound.o
 .debug_loclists
                0x0000000000004c69      0x2e4 build/i_system.o
 .debug_loclists
                0x0000000000004f4d       0x20 build/i_timer.o
 .debug_loclists
                0x0000000000004f6d      0x21a build/memio.o
 .debug_loclists
                0x0000000000005187       0x64 build/m_argv.o
 .debug_loclists
                0x00000000000051eb       0x2b build/m_bbox.o
 .debug_loclists
                0x0000000000005216       0x69 build/m_cheat.o
 .debug_loclists
                0x000000000000527f      0x233 build/m_config.o
 .debug_loclists
                0x00000000000054b2       0x4b build/m_controls.o
 .debug_loclists
                0x00000000000054fd       0x28 build/m_fixed.o
 .debug_loclists
                0x0000000000005525      0x85d build/m_menu.o
 .debug_loclists
                0x0000000000005d82      0x798 build/m_misc.o
 .debug_loclists
                0x000000000000651a      0x246 build/p_ceilng.o
 .debug_loclists
                0x0000000000006760      0x27c build/p_doors.o
 .debug_loclists
                0x00000000000069dc      0xfcb build/p_enemy.o
 .debug_loclists
                0x00000000000079a7      0x6c6 build/p_floor.o
 .debug_loclists
                0x000000000000806d      0x46d build/p_inter.o
 .debug_loclists
                0x00000000000084da      0x29e build/p_lights.o
 .debug_loclists
                0x0000000000008778      0x97e build/p_map.o
 .debug_loclists
                0x00000000000090f6      0xa4f build/p_maputl.o
 .debug_loclists
                0x0000000000009b45      0x735 build/p_mobj.o
 .debug_loclists
                0x000000000000a27a      0x290 build/p_plats.o
 .debug_loclists
                0x000000000000a50a      0x771 build/p_pspr.o
 .debug_loclists
                0x000000000000ac7b      0x9af build/p_saveg.o
 .debug_loclists
                0x000000000000b62a      0x677 build/p_setup.o
 .debug_loclists
                0x000000000000bca1      0x28b build/p_sight.o
 .debug_loclists
                0x000000000000bf2c      0xbaa build/p_spec.o
 .debug_loclists
                0x000000000000cad6      0x54d build/p_switch.o
 .debug_loclists
                0x000000000000d023       0xdb build/p_telept.o
 .debug_loclists
                0x000000000000d0fe       0x2a build/p_tick.o
 .debug_loclists
                0x000000000000d128      0x188 build/p_user.o
 .debug_loclists
                0x000000000000d2b0      0x353 build/r_bsp.o
 .debug_loclists
                0x000000000000d603      0x84e build/r_data.o
 .debug_loclists
                0x000000000000de51      0x492 build/r_draw.o
 .debug_loclists
                0x000000000000e2e3      0x6c4 build/r_main.o
 .debug_loclists
                0x000000000000e9a7      0x385 build/r_plane.o
 .debug_loclists
                0x000000000000ed2c      0x220 build/r_segs.o
 .debug_loclists
                0x000000000000ef4c      0x7b0 build/r_things.o
 .debug_loclists
                0x000000000000f6fc      0x6b1 build/sha1.o
 .debug_loclists
                0x000000000000fdad       0x1e build/statdump.o
 .debug_loclists
                0x000000000000fdcb      0x21f build/st_lib.o
 .debug_loclists
                0x000000000000ffea      0x5c6 build/st_stuff.o
 .debug_loclists
                0x00000000000105b0      0x414 build/s_sound.o
 .debug_loclists
                0x00000000000109c4       0x3f build/tables.o
 .debug_loclists
                0x0000000000010a03     0x1152 build/v_video.o
 .debug_loclists
                0x0000000000011b55      0x917 build/wi_stuff.o
 .debug_loclists
                0x000000000001246c       0x79 build/w_checksum.o
 .debug_loclists
                0x00000000000124e5       0x20 build/w_file.o
 .debug_loclists
                0x0000000000012505       0x42 build/w_main.o
 .debug_loclists
                0x0000000000012547      0x4a2 build/w_wad.o
 .debug_loclists
                0x00000000000129e9      0x321 build/z_zone.o
 .debug_loclists
                0x0000000000012d0a       0xd5 build/w_file_stdc.o
 .debug_loclists
                0x0000000000012ddf       0x98 build/i_input.o
 .debug_loclists
                0x0000000000012e77      0x2f4 build/i_video.o
 .debug_loclists
                0x000000000001316b       0x30 build/doomgeneric.o
 .debug_loclists
                0x000000000001319b     0x3767 build/doomgeneric_opssat.o

.debug_macro
 *(.debug_macro)

.debug_names
 *(.debug_names)

.debug_rnglists
                0x0000000000000000      0x3c4
 *(.debug_rnglists)
 .debug_rnglists
                0x0000000000000000       0x1b build/d_iwad.o
 .debug_rnglists
                0x000000000000001b       0x34 build/d_loop.o
 .debug_rnglists
                0x000000000000004f       0x2f build/d_main.o
 .debug_rnglists
                0x000000000000007e       0x1b build/f_finale.o
 .debug_rnglists
                0x0000000000000099       0x39 build/g_game.o
 .debug_rnglists
                0x00000000000000d2       0x39 build/hu_stuff.o
 .debug_rnglists
                0x000000000000010b       0x2f build/p_enemy.o
 .debug_rnglists
                0x000000000000013a       0x1b build/p_floor.o
 .debug_rnglists
                0x0000000000000155       0x1b build/p_map.o
 .debug_rnglists
                0x0000000000000170       0x75 build/p_pspr.o
 .debug_rnglists
                0x00000000000001e5       0x1b build/p_setup.o
 .debug_rnglists
                0x0000000000000200       0x2a build/p_spec.o
 .debug_rnglists
                0x000000000000022a       0x20 build/r_draw.o
 .debug_rnglists
                0x000000000000024a       0x75 build/st_stuff.o
 .debug_rnglists
                0x00000000000002bf       0x20 build/s_sound.o
 .debug_rnglists
                0x00000000000002df       0x1b build/w_wad.o
 .debug_rnglists
                0x00000000000002fa       0x19 build/i_input.o
 .debug_rnglists
                0x0000000000000313       0xb1 build/doomgeneric_opssat.o

.debug_str_offsets
                0x0000000000000000    0x39c14
 *(.debug_str_offsets)
 .debug_str_offsets
                0x0000000000000000       0x34 build/dummy.o
 .debug_str_offsets
                0x0000000000000034     0x199c build/am_map.o
 .debug_str_offsets
                0x00000000000019d0       0xc0 build/doomstat.o
 .debug_str_offsets
                0x0000000000001a90       0x24 build/dstrings.o
 .debug_str_offsets
                0x0000000000001ab4       0x6c build/d_event.o
 .debug_str_offsets
                0x0000000000001b20       0x5c build/d_items.o
 .debug_str_offsets
                0x0000000000001b7c      0x120 build/d_iwad.o
 .debug_str_offsets
                0x0000000000001c9c      0x224 build/d_loop.o
 .debug_str_offsets
                0x0000000000001ec0     0x1c0c build/d_main.o
 .debug_str_offsets
                0x0000000000003acc       0xec build/d_mode.o
 .debug_str_offsets
                0x0000000000003bb8     0x1714 build/d_net.o
 .debug_str_offsets
                0x00000000000052cc     0x1964 build/f_finale.o
 .debug_str_offsets
                0x0000000000006c30      0x110 build/f_wipe.o
 .debug_str_offsets
                0x0000000000006d40     0x1ef4 build/g_game.o
 .debug_str_offsets
                0x0000000000008c34      0x134 build/hu_lib.o
 .debug_str_offsets
                0x0000000000008d68     0x1a6c build/hu_stuff.o
 .debug_str_offsets
                0x000000000000a7d4     0x1220 build/info.o
 .debug_str_offsets
                0x000000000000b9f4       0x4c build/i_cdmus.o
 .debug_str_offsets
                0x000000000000ba40       0x2c build/i_endoom.o
 .debug_str_offsets
                0x000000000000ba6c       0x6c build/i_joystick.o
 .debug_str_offsets
                0x000000000000bad8      0x2e0 build/i_scale.o
 .debug_str_offsets
                0x000000000000bdb8      0x1b0 build/i_sound.o
 .debug_str_offsets
                0x000000000000bf68      0x214 build/i_system.o
 .debug_str_offsets
                0x000000000000c17c       0x54 build/i_timer.o
 .debug_str_offsets
                0x000000000000c1d0       0xe0 build/memio.o
 .debug_str_offsets
                0x000000000000c2b0       0x5c build/m_argv.o
 .debug_str_offsets
                0x000000000000c30c       0x44 build/m_bbox.o
 .debug_str_offsets
                0x000000000000c350       0x68 build/m_cheat.o
 .debug_str_offsets
                0x000000000000c3b8      0x13c build/m_config.o
 .debug_str_offsets
                0x000000000000c4f4      0x218 build/m_controls.o
 .debug_str_offsets
                0x000000000000c70c       0x3c build/m_fixed.o
 .debug_str_offsets
                0x000000000000c748      0x744 build/m_menu.o
 .debug_str_offsets
                0x000000000000ce8c      0x230 build/m_misc.o
 .debug_str_offsets
                0x000000000000d0bc       0x38 build/m_random.o
 .debug_str_offsets
                0x000000000000d0f4     0x191c build/p_ceilng.o
 .debug_str_offsets
                0x000000000000ea10     0x1990 build/p_doors.o
 .debug_str_offsets
                0x00000000000103a0     0x1c48 build/p_enemy.o
 .debug_str_offsets
                0x0000000000011fe8     0x199c build/p_floor.o
 .debug_str_offsets
                0x0000000000013984     0x1a48 build/p_inter.o
 .debug_str_offsets
                0x00000000000153cc     0x177c build/p_lights.o
 .debug_str_offsets
                0x0000000000016b48     0x1b0c build/p_map.o
 .debug_str_offsets
                0x0000000000018654     0x18a8 build/p_maputl.o
 .debug_str_offsets
                0x0000000000019efc     0x1a68 build/p_mobj.o
 .debug_str_offsets
                0x000000000001b964     0x1948 build/p_plats.o
 .debug_str_offsets
                0x000000000001d2ac     0x1a38 build/p_pspr.o
 .debug_str_offsets
                0x000000000001ece4     0x1acc build/p_saveg.o
 .debug_str_offsets
                0x00000000000207b0     0x1928 build/p_setup.o
 .debug_str_offsets
                0x00000000000220d8     0x1784 build/p_sight.o
 .debug_str_offsets
                0x000000000002385c     0x1afc build/p_spec.o
 .debug_str_offsets
                0x0000000000025358     0x19c8 build/p_switch.o
 .debug_str_offsets
                0x0000000000026d20     0x1944 build/p_telept.o
 .debug_str_offsets
                0x0000000000028664     0x16dc build/p_tick.o
 .debug_str_offsets
                0x0000000000029d40     0x17b8 build/p_user.o
 .debug_str_offsets
                0x000000000002b4f8     0x1800 build/r_bsp.o
 .debug_str_offsets
                0x000000000002ccf8     0x18e8 build/r_data.o
 .debug_str_offsets
                0x000000000002e5e0      0x1b4 build/r_draw.o
 .debug_str_offsets
                0x000000000002e794     0x187c build/r_main.o
 .debug_str_offsets
                0x0000000000030010      0x184 build/r_plane.o
 .debug_str_offsets
                0x0000000000030194     0x181c build/r_segs.o
 .debug_str_offsets
                0x00000000000319b0       0x28 build/r_sky.o
 .debug_str_offsets
                0x00000000000319d8     0x19a0 build/r_things.o
 .debug_str_offsets
                0x0000000000033378       0xd8 build/sha1.o
 .debug_str_offsets
                0x0000000000033450       0x64 build/sounds.o
 .debug_str_offsets
                0x00000000000334b4       0x9c build/statdump.o
 .debug_str_offsets
                0x0000000000033550      0x134 build/st_lib.o
 .debug_str_offsets
                0x0000000000033684     0x1b94 build/st_stuff.o
 .debug_str_offsets
                0x0000000000035218     0x1b48 build/s_sound.o
 .debug_str_offsets
                0x0000000000036d60       0x5c build/tables.o
 .debug_str_offsets
                0x0000000000036dbc      0x250 build/v_video.o
 .debug_str_offsets
                0x000000000003700c     0x1ca4 build/wi_stuff.o
 .debug_str_offsets
                0x0000000000038cb0      0x100 build/w_checksum.o
 .debug_str_offsets
                0x0000000000038db0       0x90 build/w_file.o
 .debug_str_offsets
                0x0000000000038e40       0x88 build/w_main.o
 .debug_str_offsets
                0x0000000000038ec8      0x1d8 build/w_wad.o
 .debug_str_offsets
                0x00000000000390a0      0x1a4 build/z_zone.o
 .debug_str_offsets
                0x0000000000039244      0x16c build/w_file_stdc.o
 .debug_str_offsets
                0x00000000000393b0       0x8c build/i_input.o
 .debug_str_offsets
                0x000000000003943c      0x1cc build/i_video.o
 .debug_str_offsets
                0x0000000000039608       0x44 build/doomgeneric.o
 .debug_str_offsets
                0x000000000003964c      0x5c8 build/doomgeneric_opssat.o

.debug_sup
 *(.debug_sup)

.gnu.attributes
 *(.gnu.attributes)

/DISCARD/
 *(.note.GNU-stack)
 *(.gnu_debuglink)
 *(.gnu.lto_*)
OUTPUT(doomgeneric elf64-x86-64)
